ARM GAS  C:\Users\jimvr\AppData\Local\Temp\ccXBBPTb.s 			page 1


   1              		.syntax unified
   2              		.cpu cortex-m0
   3              		.fpu softvfp
   4              		.eabi_attribute 20, 1
   5              		.eabi_attribute 21, 1
   6              		.eabi_attribute 23, 3
   7              		.eabi_attribute 24, 1
   8              		.eabi_attribute 25, 1
   9              		.eabi_attribute 26, 1
  10              		.eabi_attribute 30, 1
  11              		.eabi_attribute 34, 0
  12              		.eabi_attribute 18, 4
  13              		.thumb
  14              		.syntax unified
  15              		.file	"buttons.c"
  16              		.text
  17              	.Ltext0:
  18              		.cfi_sections	.debug_frame
  19              		.section	.text.ReadButtonsOnChange,"ax",%progbits
  20              		.align	2
  21              		.global	ReadButtonsOnChange
  22              		.code	16
  23              		.thumb_func
  24              		.type	ReadButtonsOnChange, %function
  25              	ReadButtonsOnChange:
  26              	.LFB33:
  27              		.file 1 "buttons.c"
   1:buttons.c     **** //
   2:buttons.c     **** // buttons.c
   3:buttons.c     **** //
   4:buttons.c     **** // Handles the 6 button up, down, repeat modes
   5:buttons.c     **** //
   6:buttons.c     **** //
   7:buttons.c     **** 
   8:buttons.c     **** #include <project.h>
   9:buttons.c     **** #include "main.h"
  10:buttons.c     **** #include "buttons.h"
  11:buttons.c     **** #include <math.h>
  12:buttons.c     **** #include <stddef.h>
  13:buttons.c     **** #include <stdio.h>
  14:buttons.c     **** #include <stdlib.h>
  15:buttons.c     **** 
  16:buttons.c     **** 
  17:buttons.c     **** extern volatile structInfo Info;
  18:buttons.c     **** extern volatile structButtonState ButtonState; // state of the guttons
  19:buttons.c     **** extern volatile uint16 uiButtonTimer[NUMBUTTONS];
  20:buttons.c     **** 
  21:buttons.c     **** uint8 ReadButtonsOnChange(void) {
  28              		.loc 1 21 0
  29              		.cfi_startproc
  30              		@ args = 0, pretend = 0, frame = 8
  31              		@ frame_needed = 0, uses_anonymous_args = 0
  32 0000 70B5     		push	{r4, r5, r6, lr}
  33              		.cfi_def_cfa_offset 16
  34              		.cfi_offset 4, -16
  35              		.cfi_offset 5, -12
  36              		.cfi_offset 6, -8
ARM GAS  C:\Users\jimvr\AppData\Local\Temp\ccXBBPTb.s 			page 2


  37              		.cfi_offset 14, -4
  38 0002 82B0     		sub	sp, sp, #8
  39              		.cfi_def_cfa_offset 24
  40              	.LVL0:
  22:buttons.c     **** 	static uint8 byButtonState[NUMBUTTONS] = {e_NOBUTTON, e_NOBUTTON, e_NOBUTTON};
  23:buttons.c     ****     bool bButton = 0;
  24:buttons.c     **** 
  25:buttons.c     ****     uint8 byBuffer[2];
  26:buttons.c     ****     LatchRead(LATCH1, PCLA9538_INREG, byBuffer[0]);
  41              		.loc 1 26 0
  42 0004 01AB     		add	r3, sp, #4
  43 0006 1C78     		ldrb	r4, [r3]
  44 0008 2200     		movs	r2, r4
  45 000a 0021     		movs	r1, #0
  46 000c 7020     		movs	r0, #112
  47 000e FFF7FEFF 		bl	LatchRead
  48              	.LVL1:
  27:buttons.c     ****     uint8 byAllButtons = byBuffer[0]; // see if buttons are active
  28:buttons.c     ****     byAllButtons >>= 4;
  49              		.loc 1 28 0
  50 0012 2409     		lsrs	r4, r4, #4
  51              	.LVL2:
  29:buttons.c     ****     byAllButtons = ~byAllButtons;
  52              		.loc 1 29 0
  53 0014 E443     		mvns	r4, r4
  54              	.LVL3:
  55 0016 E4B2     		uxtb	r4, r4
  56              	.LVL4:
  57              	.LBB2:
  30:buttons.c     ****     
  31:buttons.c     ****     for(uint8 n=0;n<NUMBUTTONS;n++) {
  58              		.loc 1 31 0
  59 0018 0023     		movs	r3, #0
  60 001a 7FE0     		b	.L2
  61              	.LVL5:
  62              	.L11:
  32:buttons.c     ****         bButton = byAllButtons & (0x01 << n); // bit mapped to single bool
  63              		.loc 1 32 0
  64 001c 0121     		movs	r1, #1
  65 001e 9940     		lsls	r1, r1, r3
  66 0020 0D00     		movs	r5, r1
  67 0022 2540     		ands	r5, r4
  68              	.LVL6:
  33:buttons.c     ****     	switch(byButtonState[n]) {
  69              		.loc 1 33 0
  70 0024 4148     		ldr	r0, .L12
  71 0026 C05C     		ldrb	r0, [r0, r3]
  72 0028 0228     		cmp	r0, #2
  73 002a 44D0     		beq	.L4
  74 002c 0528     		cmp	r0, #5
  75 002e 63D0     		beq	.L5
  76 0030 0128     		cmp	r0, #1
  77 0032 1BD0     		beq	.L6
  34:buttons.c     ****             default:
  35:buttons.c     ****     		case e_NOBUTTON: { // nothing last was happening to this button
  36:buttons.c     ****                 if(!uiButtonTimer[n]) {  // see if we had a prior down, may be jittery so we wait i
  78              		.loc 1 36 0
ARM GAS  C:\Users\jimvr\AppData\Local\Temp\ccXBBPTb.s 			page 3


  79 0034 5800     		lsls	r0, r3, #1
  80 0036 3E4E     		ldr	r6, .L12+4
  81 0038 805B     		ldrh	r0, [r0, r6]
  82 003a 80B2     		uxth	r0, r0
  83 003c 0028     		cmp	r0, #0
  84 003e 6BD1     		bne	.L7
  37:buttons.c     ****         			if(bButton) { // anything happening?
  85              		.loc 1 37 0
  86 0040 002D     		cmp	r5, #0
  87 0042 06D0     		beq	.L8
  38:buttons.c     ****         				uiButtonTimer[n] = BUTTONDOWNTIME; // start the down timer
  88              		.loc 1 38 0
  89 0044 5800     		lsls	r0, r3, #1
  90 0046 3225     		movs	r5, #50
  91              	.LVL7:
  92 0048 8553     		strh	r5, [r0, r6]
  39:buttons.c     ****         				byButtonState[n] = e_WAITDOWNBUTTON; // next state
  93              		.loc 1 39 0
  94 004a 0120     		movs	r0, #1
  95 004c 3749     		ldr	r1, .L12
  96              	.LVL8:
  97 004e C854     		strb	r0, [r1, r3]
  98 0050 62E0     		b	.L7
  99              	.LVL9:
 100              	.L8:
  40:buttons.c     ****         			} else {
  41:buttons.c     ****                         // gonna have to check the multiple presses here                           
  42:buttons.c     ****                         
  43:buttons.c     ****                         ButtonState.byButtonDown &= ~(0x01 << n);
 101              		.loc 1 43 0
 102 0052 384A     		ldr	r2, .L12+8
 103 0054 1078     		ldrb	r0, [r2]
 104 0056 C943     		mvns	r1, r1
 105 0058 49B2     		sxtb	r1, r1
 106 005a 0840     		ands	r0, r1
 107 005c 1070     		strb	r0, [r2]
  44:buttons.c     ****                         ButtonState.byButtonLong &= ~(0x01 << n);
 108              		.loc 1 44 0
 109 005e 5078     		ldrb	r0, [r2, #1]
 110 0060 0840     		ands	r0, r1
 111 0062 5070     		strb	r0, [r2, #1]
  45:buttons.c     ****                         ButtonState.byButtonHold &= ~(0x01 << n);
 112              		.loc 1 45 0
 113 0064 9078     		ldrb	r0, [r2, #2]
 114 0066 0140     		ands	r1, r0
 115 0068 9170     		strb	r1, [r2, #2]
 116 006a 55E0     		b	.L7
 117              	.L6:
  46:buttons.c     ****                     }
  47:buttons.c     ****                 }
  48:buttons.c     ****     		} break;
  49:buttons.c     ****     	
  50:buttons.c     ****     		// we are in the process of trapping a downed key
  51:buttons.c     ****     		case e_WAITDOWNBUTTON: {
  52:buttons.c     ****                 if(bButton) { // make sure we are still down
 118              		.loc 1 52 0
 119 006c 002D     		cmp	r5, #0
ARM GAS  C:\Users\jimvr\AppData\Local\Temp\ccXBBPTb.s 			page 4


 120 006e 12D0     		beq	.L9
  53:buttons.c     ****                     if(!uiButtonTimer[n]) { // did we elapse the down time?
 121              		.loc 1 53 0
 122 0070 5800     		lsls	r0, r3, #1
 123 0072 2F4D     		ldr	r5, .L12+4
 124              	.LVL10:
 125 0074 405B     		ldrh	r0, [r0, r5]
 126 0076 80B2     		uxth	r0, r0
 127 0078 0028     		cmp	r0, #0
 128 007a 4DD1     		bne	.L7
  54:buttons.c     ****                         uiButtonTimer[n] = BUTTONLONGPRESSTIME; // time to see if we are long press
 129              		.loc 1 54 0
 130 007c 5D00     		lsls	r5, r3, #1
 131 007e FA26     		movs	r6, #250
 132 0080 2B48     		ldr	r0, .L12+4
 133 0082 2E52     		strh	r6, [r5, r0]
  55:buttons.c     ****            				byButtonState[n] = e_DOWNBUTTON; // next state
 134              		.loc 1 55 0
 135 0084 0225     		movs	r5, #2
 136 0086 2948     		ldr	r0, .L12
 137 0088 C554     		strb	r5, [r0, r3]
  56:buttons.c     ****                         
  57:buttons.c     ****                         ButtonState.byButtonDown |= (0x01 << n);
 138              		.loc 1 57 0
 139 008a 2A48     		ldr	r0, .L12+8
 140 008c 0278     		ldrb	r2, [r0]
 141 008e 1143     		orrs	r1, r2
 142              	.LVL11:
 143 0090 C9B2     		uxtb	r1, r1
 144 0092 0170     		strb	r1, [r0]
 145 0094 40E0     		b	.L7
 146              	.LVL12:
 147              	.L9:
  58:buttons.c     ****                     }
  59:buttons.c     ****                } else { // something is bouncing
  60:buttons.c     ****        				byButtonState[n] = e_NOBUTTON; // home state
 148              		.loc 1 60 0
 149 0096 0025     		movs	r5, #0
 150              	.LVL13:
 151 0098 2448     		ldr	r0, .L12
 152 009a C554     		strb	r5, [r0, r3]
  61:buttons.c     ****                     ButtonState.byButtonDown &= ~(0x01 << n);
 153              		.loc 1 61 0
 154 009c 254A     		ldr	r2, .L12+8
 155 009e 1078     		ldrb	r0, [r2]
 156 00a0 C943     		mvns	r1, r1
 157              	.LVL14:
 158 00a2 49B2     		sxtb	r1, r1
 159              	.LVL15:
 160 00a4 0840     		ands	r0, r1
 161 00a6 1070     		strb	r0, [r2]
  62:buttons.c     ****                     ButtonState.byButtonLong &= ~(0x01 << n);
 162              		.loc 1 62 0
 163 00a8 5078     		ldrb	r0, [r2, #1]
 164 00aa 0840     		ands	r0, r1
 165 00ac 5070     		strb	r0, [r2, #1]
  63:buttons.c     ****                     ButtonState.byButtonHold &= ~(0x01 << n);
ARM GAS  C:\Users\jimvr\AppData\Local\Temp\ccXBBPTb.s 			page 5


 166              		.loc 1 63 0
 167 00ae 9078     		ldrb	r0, [r2, #2]
 168 00b0 0140     		ands	r1, r0
 169 00b2 9170     		strb	r1, [r2, #2]
 170 00b4 30E0     		b	.L7
 171              	.LVL16:
 172              	.L4:
  64:buttons.c     ****                 }
  65:buttons.c     ****             } break;
  66:buttons.c     ****                     
  67:buttons.c     ****     		case e_DOWNBUTTON: { // now hold here to see if this is a long press
  68:buttons.c     ****                 if(bButton) { // make sure we are still down
 173              		.loc 1 68 0
 174 00b6 002D     		cmp	r5, #0
 175 00b8 0ED0     		beq	.L10
  69:buttons.c     ****                     if(!uiButtonTimer[n]) { // did we elapse the long press down time?
 176              		.loc 1 69 0
 177 00ba 5800     		lsls	r0, r3, #1
 178 00bc 1C4D     		ldr	r5, .L12+4
 179              	.LVL17:
 180 00be 405B     		ldrh	r0, [r0, r5]
 181 00c0 80B2     		uxth	r0, r0
 182 00c2 0028     		cmp	r0, #0
 183 00c4 28D1     		bne	.L7
  70:buttons.c     **** //               				byButtonState[n] = e_LONGPRESSBUTTON; // next state
  71:buttons.c     **** //                            uiButtonTimer[n] = BUTTONLONGERPRESSTIME; // time to see if we are lo
  72:buttons.c     ****                         
  73:buttons.c     ****                         byButtonState[n] = e_HOLDPRESS; // next state
 184              		.loc 1 73 0
 185 00c6 0525     		movs	r5, #5
 186 00c8 1848     		ldr	r0, .L12
 187 00ca C554     		strb	r5, [r0, r3]
  74:buttons.c     ****                         ButtonState.byButtonLong |= 0x01 << n;
 188              		.loc 1 74 0
 189 00cc 1948     		ldr	r0, .L12+8
 190 00ce 4278     		ldrb	r2, [r0, #1]
 191 00d0 1143     		orrs	r1, r2
 192              	.LVL18:
 193 00d2 C9B2     		uxtb	r1, r1
 194 00d4 4170     		strb	r1, [r0, #1]
 195 00d6 1FE0     		b	.L7
 196              	.LVL19:
 197              	.L10:
  75:buttons.c     ****                     }
  76:buttons.c     ****                 } else { // let go?
  77:buttons.c     ****        				byButtonState[n] = e_NOBUTTON; // home state
 198              		.loc 1 77 0
 199 00d8 0025     		movs	r5, #0
 200              	.LVL20:
 201 00da 1448     		ldr	r0, .L12
 202 00dc C554     		strb	r5, [r0, r3]
  78:buttons.c     ****                     ButtonState.byButtonDown &= ~(0x01 << n);
 203              		.loc 1 78 0
 204 00de 154A     		ldr	r2, .L12+8
 205 00e0 1078     		ldrb	r0, [r2]
 206 00e2 C943     		mvns	r1, r1
 207              	.LVL21:
ARM GAS  C:\Users\jimvr\AppData\Local\Temp\ccXBBPTb.s 			page 6


 208 00e4 49B2     		sxtb	r1, r1
 209              	.LVL22:
 210 00e6 0840     		ands	r0, r1
 211 00e8 1070     		strb	r0, [r2]
  79:buttons.c     ****                     ButtonState.byButtonLong &= ~(0x01 << n);
 212              		.loc 1 79 0
 213 00ea 5078     		ldrb	r0, [r2, #1]
 214 00ec 0840     		ands	r0, r1
 215 00ee 5070     		strb	r0, [r2, #1]
  80:buttons.c     ****                     ButtonState.byButtonHold &= ~(0x01 << n);
 216              		.loc 1 80 0
 217 00f0 9078     		ldrb	r0, [r2, #2]
 218 00f2 0140     		ands	r1, r0
 219 00f4 9170     		strb	r1, [r2, #2]
 220 00f6 0FE0     		b	.L7
 221              	.LVL23:
 222              	.L5:
  81:buttons.c     ****                 }
  82:buttons.c     ****             } break;
  83:buttons.c     ****                     
  84:buttons.c     **** //                case e_LONGPRESSBUTTON: {
  85:buttons.c     **** //                    if(bButton) { // make sure we are still down
  86:buttons.c     **** //                        if(!uiButtonTimer[n]) { // did we elapse the long press down time?
  87:buttons.c     **** //               				byButtonState[n] = e_HOLDPRESS; // next state
  88:buttons.c     **** //                            
  89:buttons.c     **** //                            ButtonState.byButtonHold |= 0x01 << n;
  90:buttons.c     **** //                        }
  91:buttons.c     **** //                    } else { // let go?
  92:buttons.c     **** //           				byButtonState[n] = e_NOBUTTON; // home state
  93:buttons.c     **** //                        ButtonState.byButtonDown &= ~(0x01 << n);
  94:buttons.c     **** //                        ButtonState.byButtonLong &= ~(0x01 << n);
  95:buttons.c     **** //                        ButtonState.byButtonHold &= ~(0x01 << n);
  96:buttons.c     **** //                    }                           
  97:buttons.c     **** //                } break;
  98:buttons.c     ****             
  99:buttons.c     ****             case e_HOLDPRESS: {
 100:buttons.c     ****                 if(bButton) { // make sure we are still down
 223              		.loc 1 100 0
 224 00f8 002D     		cmp	r5, #0
 225 00fa 0DD1     		bne	.L7
 101:buttons.c     ****                 
 102:buttons.c     ****                 } else {
 103:buttons.c     ****        				byButtonState[n] = e_NOBUTTON; // home state                        
 226              		.loc 1 103 0
 227 00fc 0B48     		ldr	r0, .L12
 228 00fe C554     		strb	r5, [r0, r3]
 104:buttons.c     ****                     ButtonState.byButtonDown &= ~(0x01 << n);
 229              		.loc 1 104 0
 230 0100 0C4A     		ldr	r2, .L12+8
 231 0102 1078     		ldrb	r0, [r2]
 232 0104 C943     		mvns	r1, r1
 233 0106 49B2     		sxtb	r1, r1
 234 0108 0840     		ands	r0, r1
 235 010a 1070     		strb	r0, [r2]
 105:buttons.c     ****                     ButtonState.byButtonLong &= ~(0x01 << n);
 236              		.loc 1 105 0
 237 010c 5078     		ldrb	r0, [r2, #1]
ARM GAS  C:\Users\jimvr\AppData\Local\Temp\ccXBBPTb.s 			page 7


 238 010e 0840     		ands	r0, r1
 239 0110 5070     		strb	r0, [r2, #1]
 106:buttons.c     ****                     ButtonState.byButtonHold &= ~(0x01 << n);
 240              		.loc 1 106 0
 241 0112 9078     		ldrb	r0, [r2, #2]
 242 0114 0140     		ands	r1, r0
 243 0116 9170     		strb	r1, [r2, #2]
 244              	.LVL24:
 245              	.L7:
  31:buttons.c     ****         bButton = byAllButtons & (0x01 << n); // bit mapped to single bool
 246              		.loc 1 31 0 discriminator 2
 247 0118 0133     		adds	r3, r3, #1
 248              	.LVL25:
 249 011a DBB2     		uxtb	r3, r3
 250              	.LVL26:
 251              	.L2:
  31:buttons.c     ****         bButton = byAllButtons & (0x01 << n); // bit mapped to single bool
 252              		.loc 1 31 0 is_stmt 0 discriminator 1
 253 011c 022B     		cmp	r3, #2
 254 011e 00D8     		bhi	.LCB242
 255 0120 7CE7     		b	.L11	@long jump
 256              	.LCB242:
 257              	.LBE2:
 107:buttons.c     ****                 }
 108:buttons.c     ****             } break;
 109:buttons.c     ****         }
 110:buttons.c     **** 	}
 111:buttons.c     ****         
 112:buttons.c     ****     return(ButtonState.byButtonDown);
 258              		.loc 1 112 0 is_stmt 1
 259 0122 044B     		ldr	r3, .L12+8
 260              	.LVL27:
 261 0124 1878     		ldrb	r0, [r3]
 262 0126 C0B2     		uxtb	r0, r0
 113:buttons.c     **** 	
 114:buttons.c     **** } // End of ReadButtonsOnChange( )
 263              		.loc 1 114 0
 264 0128 02B0     		add	sp, sp, #8
 265              		@ sp needed
 266              	.LVL28:
 267 012a 70BD     		pop	{r4, r5, r6, pc}
 268              	.L13:
 269              		.align	2
 270              	.L12:
 271 012c 00000000 		.word	.LANCHOR0
 272 0130 00000000 		.word	uiButtonTimer
 273 0134 00000000 		.word	ButtonState
 274              		.cfi_endproc
 275              	.LFE33:
 276              		.size	ReadButtonsOnChange, .-ReadButtonsOnChange
 277              		.comm	SWPRESSES,1,1
 278              		.bss
 279              		.align	2
 280              		.set	.LANCHOR0,. + 0
 281              		.type	byButtonState.8088, %object
 282              		.size	byButtonState.8088, 3
 283              	byButtonState.8088:
ARM GAS  C:\Users\jimvr\AppData\Local\Temp\ccXBBPTb.s 			page 8


 284 0000 000000   		.space	3
 285              		.text
 286              	.Letext0:
 287              		.file 2 "Generated_Source\\PSoC4/cytypes.h"
 288              		.file 3 "buttons.h"
 289              		.file 4 "main.h"