ARM GAS  C:\Users\jimvr\AppData\Local\Temp\ccRHCRpJ.s 			page 1


   1              		.syntax unified
   2              		.cpu cortex-m0
   3              		.fpu softvfp
   4              		.eabi_attribute 20, 1
   5              		.eabi_attribute 21, 1
   6              		.eabi_attribute 23, 3
   7              		.eabi_attribute 24, 1
   8              		.eabi_attribute 25, 1
   9              		.eabi_attribute 26, 1
  10              		.eabi_attribute 30, 1
  11              		.eabi_attribute 34, 0
  12              		.eabi_attribute 18, 4
  13              		.thumb
  14              		.syntax unified
  15              		.file	"CLI.c"
  16              		.text
  17              	.Ltext0:
  18              		.cfi_sections	.debug_frame
  19              		.section	.text.CLI_Print,"ax",%progbits
  20              		.align	2
  21              		.code	16
  22              		.thumb_func
  23              		.type	CLI_Print, %function
  24              	CLI_Print:
  25              	.LFB33:
  26              		.file 1 "CLI.c"
   1:CLI.c         **** // File: CLI.c
   2:CLI.c         **** // Project: Revelite - Simple Command Line Interface
   3:CLI.c         **** // Minimal flash footprint CLI for debugging battery charger and fuel gauge
   4:CLI.c         **** 
   5:CLI.c         **** #include "project.h"
   6:CLI.c         **** #include "main.h"
   7:CLI.c         **** #include "CLI.h"
   8:CLI.c         **** #include "battery.h"
   9:CLI.c         **** #include "LTC2944.h"
  10:CLI.c         **** #include <stdio.h>
  11:CLI.c         **** #include <string.h>
  12:CLI.c         **** 
  13:CLI.c         **** // CLI state
  14:CLI.c         **** static char cli_buffer[CLI_BUFFER_SIZE];
  15:CLI.c         **** static uint8_t cli_index = 0;
  16:CLI.c         **** 
  17:CLI.c         **** // Helper function to send string via UART
  18:CLI.c         **** static void CLI_Print(const char* str) {
  27              		.loc 1 18 0
  28              		.cfi_startproc
  29              		@ args = 0, pretend = 0, frame = 0
  30              		@ frame_needed = 0, uses_anonymous_args = 0
  31              	.LVL0:
  32 0000 10B5     		push	{r4, lr}
  33              		.cfi_def_cfa_offset 8
  34              		.cfi_offset 4, -8
  35              		.cfi_offset 14, -4
  36 0002 0400     		movs	r4, r0
  19:CLI.c         ****     UART_SpiUartPutArray((const uint8_t*)str, strlen(str));
  37              		.loc 1 19 0
  38 0004 FFF7FEFF 		bl	strlen
ARM GAS  C:\Users\jimvr\AppData\Local\Temp\ccRHCRpJ.s 			page 2


  39              	.LVL1:
  40 0008 0100     		movs	r1, r0
  41 000a 2000     		movs	r0, r4
  42 000c FFF7FEFF 		bl	UART_SpiUartPutArray
  43              	.LVL2:
  44              	.L2:
  20:CLI.c         ****     while(UART_SpiUartGetTxBufferSize() != 0);
  45              		.loc 1 20 0 discriminator 1
  46 0010 FFF7FEFF 		bl	UART_SpiUartGetTxBufferSize
  47              	.LVL3:
  48 0014 0028     		cmp	r0, #0
  49 0016 FBD1     		bne	.L2
  21:CLI.c         **** }
  50              		.loc 1 21 0
  51              		@ sp needed
  52              	.LVL4:
  53 0018 10BD     		pop	{r4, pc}
  54              		.cfi_endproc
  55              	.LFE33:
  56              		.size	CLI_Print, .-CLI_Print
  57 001a C046     		.section	.text.CLI_Init,"ax",%progbits
  58              		.align	2
  59              		.global	CLI_Init
  60              		.code	16
  61              		.thumb_func
  62              		.type	CLI_Init, %function
  63              	CLI_Init:
  64              	.LFB34:
  22:CLI.c         **** 
  23:CLI.c         **** // Initialize CLI
  24:CLI.c         **** void CLI_Init(void) {
  65              		.loc 1 24 0
  66              		.cfi_startproc
  67              		@ args = 0, pretend = 0, frame = 0
  68              		@ frame_needed = 0, uses_anonymous_args = 0
  69 0000 10B5     		push	{r4, lr}
  70              		.cfi_def_cfa_offset 8
  71              		.cfi_offset 4, -8
  72              		.cfi_offset 14, -4
  25:CLI.c         ****     cli_index = 0;
  73              		.loc 1 25 0
  74 0002 0748     		ldr	r0, .L4
  75 0004 0023     		movs	r3, #0
  76 0006 0370     		strb	r3, [r0]
  26:CLI.c         ****     memset(cli_buffer, 0, CLI_BUFFER_SIZE);
  77              		.loc 1 26 0
  78 0008 0430     		adds	r0, r0, #4
  79 000a 4022     		movs	r2, #64
  80 000c 0021     		movs	r1, #0
  81 000e FFF7FEFF 		bl	memset
  82              	.LVL5:
  27:CLI.c         ****     CLI_Print("\r\n*** Revelite Battery System CLI ***\r\n");
  83              		.loc 1 27 0
  84 0012 0448     		ldr	r0, .L4+4
  85 0014 FFF7FEFF 		bl	CLI_Print
  86              	.LVL6:
  28:CLI.c         ****     CLI_Print("Type 'h' for help\r\n> ");
ARM GAS  C:\Users\jimvr\AppData\Local\Temp\ccRHCRpJ.s 			page 3


  87              		.loc 1 28 0
  88 0018 0348     		ldr	r0, .L4+8
  89 001a FFF7FEFF 		bl	CLI_Print
  90              	.LVL7:
  29:CLI.c         **** }
  91              		.loc 1 29 0
  92              		@ sp needed
  93 001e 10BD     		pop	{r4, pc}
  94              	.L5:
  95              		.align	2
  96              	.L4:
  97 0020 00000000 		.word	.LANCHOR0
  98 0024 00000000 		.word	.LC1
  99 0028 28000000 		.word	.LC3
 100              		.cfi_endproc
 101              	.LFE34:
 102              		.size	CLI_Init, .-CLI_Init
 103              		.section	.text.CLI_PrintHelp,"ax",%progbits
 104              		.align	2
 105              		.global	CLI_PrintHelp
 106              		.code	16
 107              		.thumb_func
 108              		.type	CLI_PrintHelp, %function
 109              	CLI_PrintHelp:
 110              	.LFB36:
  30:CLI.c         **** 
  31:CLI.c         **** // Process incoming byte
  32:CLI.c         **** void CLI_ProcessByte(char byte) {
  33:CLI.c         ****     // Echo character
  34:CLI.c         ****     char echo[2] = {byte, '\0'};
  35:CLI.c         ****     if (byte >= 32 && byte < 127) {
  36:CLI.c         ****         UART_SpiUartPutArray((const uint8_t*)echo, 1);
  37:CLI.c         ****     }
  38:CLI.c         ****     
  39:CLI.c         ****     // Handle backspace
  40:CLI.c         ****     if (byte == 8 || byte == 127) {
  41:CLI.c         ****         if (cli_index > 0) {
  42:CLI.c         ****             cli_index--;
  43:CLI.c         ****             cli_buffer[cli_index] = '\0';
  44:CLI.c         ****             CLI_Print("\b \b");  // Backspace, space, backspace
  45:CLI.c         ****         }
  46:CLI.c         ****         return;
  47:CLI.c         ****     }
  48:CLI.c         ****     
  49:CLI.c         ****     // Handle newline/carriage return
  50:CLI.c         ****     if (byte == '\r' || byte == '\n') {
  51:CLI.c         ****         CLI_Print("\r\n");
  52:CLI.c         ****         
  53:CLI.c         ****         if (cli_index > 0) {
  54:CLI.c         ****             // Process command
  55:CLI.c         ****             char cmd = cli_buffer[0];
  56:CLI.c         ****             
  57:CLI.c         ****             switch(cmd) {
  58:CLI.c         ****                 case 'h':  // Help
  59:CLI.c         ****                 case 'H':
  60:CLI.c         ****                 case '?':
  61:CLI.c         ****                     CLI_PrintHelp();
ARM GAS  C:\Users\jimvr\AppData\Local\Temp\ccRHCRpJ.s 			page 4


  62:CLI.c         ****                     break;
  63:CLI.c         ****                     
  64:CLI.c         ****                 case 'b':  // Battery charger status
  65:CLI.c         ****                 case 'B':
  66:CLI.c         ****                     CLI_PrintBatteryStatus();
  67:CLI.c         ****                     break;
  68:CLI.c         ****                     
  69:CLI.c         ****                 case 'f':  // Fuel gauge status
  70:CLI.c         ****                 case 'F':
  71:CLI.c         ****                     CLI_PrintFuelGaugeStatus();
  72:CLI.c         ****                     break;
  73:CLI.c         ****                     
  74:CLI.c         ****                 case 'i':  // Initialize both
  75:CLI.c         ****                 case 'I':
  76:CLI.c         ****                     CLI_Print("Initializing charger...\r\n");
  77:CLI.c         ****                     if (BQ25730_Init()) {
  78:CLI.c         ****                         CLI_Print("  Charger OK\r\n");
  79:CLI.c         ****                     } else {
  80:CLI.c         ****                         CLI_Print("  Charger FAILED\r\n");
  81:CLI.c         ****                     }
  82:CLI.c         ****                     
  83:CLI.c         ****                     CLI_Print("Initializing fuel gauge...\r\n");
  84:CLI.c         ****                     if (LTC2944_Init((uint16_t)BATTERY_CAPACITY_MAH, LTC2944_PRESCALER_M_1024)) {
  85:CLI.c         ****                         CLI_Print("  Fuel gauge OK\r\n");
  86:CLI.c         ****                     } else {
  87:CLI.c         ****                         CLI_Print("  Fuel gauge FAILED\r\n");
  88:CLI.c         ****                     }
  89:CLI.c         ****                     break;
  90:CLI.c         ****                     
  91:CLI.c         ****                 case 'e':  // Enable charging
  92:CLI.c         ****                 case 'E':
  93:CLI.c         ****                     BQ25730_EnableCharging(true);
  94:CLI.c         ****                     CLI_Print("Charging ENABLED\r\n");
  95:CLI.c         ****                     break;
  96:CLI.c         ****                     
  97:CLI.c         ****                 case 'd':  // Disable charging
  98:CLI.c         ****                 case 'D':
  99:CLI.c         ****                     BQ25730_EnableCharging(false);
 100:CLI.c         ****                     CLI_Print("Charging DISABLED\r\n");
 101:CLI.c         ****                     break;
 102:CLI.c         ****                     
 103:CLI.c         ****                 case 'a':  // All status
 104:CLI.c         ****                 case 'A':
 105:CLI.c         ****                     CLI_PrintBatteryStatus();
 106:CLI.c         ****                     CLI_Print("\r\n");
 107:CLI.c         ****                     CLI_PrintFuelGaugeStatus();
 108:CLI.c         ****                     break;
 109:CLI.c         ****                     
 110:CLI.c         ****                 case 'r':  // Read charger register
 111:CLI.c         ****                 case 'R':
 112:CLI.c         ****                     CLI_Print("Reading BQ25730 registers...\r\n");
 113:CLI.c         ****                     CLI_ReadChargerRegisters();
 114:CLI.c         ****                     break;
 115:CLI.c         ****                     
 116:CLI.c         ****                 case 's':  // I2C scan
 117:CLI.c         ****                 case 'S':
 118:CLI.c         ****                     CLI_Print("Scanning I2C bus...\r\n");
ARM GAS  C:\Users\jimvr\AppData\Local\Temp\ccRHCRpJ.s 			page 5


 119:CLI.c         ****                     CLI_I2CScan();
 120:CLI.c         ****                     break;
 121:CLI.c         ****                     
 122:CLI.c         ****                 default:
 123:CLI.c         ****                     CLI_Print("Unknown command. Type 'h' for help\r\n");
 124:CLI.c         ****                     break;
 125:CLI.c         ****             }
 126:CLI.c         ****         }
 127:CLI.c         ****         
 128:CLI.c         ****         // Reset buffer
 129:CLI.c         ****         cli_index = 0;
 130:CLI.c         ****         memset(cli_buffer, 0, CLI_BUFFER_SIZE);
 131:CLI.c         ****         CLI_Print("> ");
 132:CLI.c         ****         return;
 133:CLI.c         ****     }
 134:CLI.c         ****     
 135:CLI.c         ****     // Add to buffer if printable and space available
 136:CLI.c         ****     if (byte >= 32 && byte < 127) {
 137:CLI.c         ****         if (cli_index < CLI_BUFFER_SIZE - 1) {
 138:CLI.c         ****             cli_buffer[cli_index++] = byte;
 139:CLI.c         ****             cli_buffer[cli_index] = '\0';
 140:CLI.c         ****         }
 141:CLI.c         ****     }
 142:CLI.c         **** }
 143:CLI.c         **** 
 144:CLI.c         **** // Print help menu
 145:CLI.c         **** void CLI_PrintHelp(void) {
 111              		.loc 1 145 0
 112              		.cfi_startproc
 113              		@ args = 0, pretend = 0, frame = 0
 114              		@ frame_needed = 0, uses_anonymous_args = 0
 115 0000 10B5     		push	{r4, lr}
 116              		.cfi_def_cfa_offset 8
 117              		.cfi_offset 4, -8
 118              		.cfi_offset 14, -4
 146:CLI.c         ****     CLI_Print("Commands:\r\n");
 119              		.loc 1 146 0
 120 0002 0F48     		ldr	r0, .L7
 121 0004 FFF7FEFF 		bl	CLI_Print
 122              	.LVL8:
 147:CLI.c         ****     CLI_Print("  h - Help (this menu)\r\n");
 123              		.loc 1 147 0
 124 0008 0E48     		ldr	r0, .L7+4
 125 000a FFF7FEFF 		bl	CLI_Print
 126              	.LVL9:
 148:CLI.c         ****     CLI_Print("  i - Initialize charger & fuel gauge\r\n");
 127              		.loc 1 148 0
 128 000e 0E48     		ldr	r0, .L7+8
 129 0010 FFF7FEFF 		bl	CLI_Print
 130              	.LVL10:
 149:CLI.c         ****     CLI_Print("  b - Battery charger status\r\n");
 131              		.loc 1 149 0
 132 0014 0D48     		ldr	r0, .L7+12
 133 0016 FFF7FEFF 		bl	CLI_Print
 134              	.LVL11:
 150:CLI.c         ****     CLI_Print("  f - Fuel gauge status\r\n");
 135              		.loc 1 150 0
ARM GAS  C:\Users\jimvr\AppData\Local\Temp\ccRHCRpJ.s 			page 6


 136 001a 0D48     		ldr	r0, .L7+16
 137 001c FFF7FEFF 		bl	CLI_Print
 138              	.LVL12:
 151:CLI.c         ****     CLI_Print("  a - All status (charger + fuel gauge)\r\n");
 139              		.loc 1 151 0
 140 0020 0C48     		ldr	r0, .L7+20
 141 0022 FFF7FEFF 		bl	CLI_Print
 142              	.LVL13:
 152:CLI.c         ****     CLI_Print("  e - Enable charging\r\n");
 143              		.loc 1 152 0
 144 0026 0C48     		ldr	r0, .L7+24
 145 0028 FFF7FEFF 		bl	CLI_Print
 146              	.LVL14:
 153:CLI.c         ****     CLI_Print("  d - Disable charging\r\n");
 147              		.loc 1 153 0
 148 002c 0B48     		ldr	r0, .L7+28
 149 002e FFF7FEFF 		bl	CLI_Print
 150              	.LVL15:
 154:CLI.c         ****     CLI_Print("  r - Read charger registers (debug)\r\n");
 151              		.loc 1 154 0
 152 0032 0B48     		ldr	r0, .L7+32
 153 0034 FFF7FEFF 		bl	CLI_Print
 154              	.LVL16:
 155:CLI.c         ****     CLI_Print("  s - Scan I2C bus (debug)\r\n");
 155              		.loc 1 155 0
 156 0038 0A48     		ldr	r0, .L7+36
 157 003a FFF7FEFF 		bl	CLI_Print
 158              	.LVL17:
 156:CLI.c         **** }
 159              		.loc 1 156 0
 160              		@ sp needed
 161 003e 10BD     		pop	{r4, pc}
 162              	.L8:
 163              		.align	2
 164              	.L7:
 165 0040 40000000 		.word	.LC6
 166 0044 4C000000 		.word	.LC8
 167 0048 68000000 		.word	.LC10
 168 004c 90000000 		.word	.LC12
 169 0050 B0000000 		.word	.LC14
 170 0054 CC000000 		.word	.LC16
 171 0058 F8000000 		.word	.LC18
 172 005c 10010000 		.word	.LC20
 173 0060 2C010000 		.word	.LC22
 174 0064 54010000 		.word	.LC24
 175              		.cfi_endproc
 176              	.LFE36:
 177              		.size	CLI_PrintHelp, .-CLI_PrintHelp
 178              		.section	.text.CLI_PrintBatteryStatus,"ax",%progbits
 179              		.align	2
 180              		.global	CLI_PrintBatteryStatus
 181              		.code	16
 182              		.thumb_func
 183              		.type	CLI_PrintBatteryStatus, %function
 184              	CLI_PrintBatteryStatus:
 185              	.LFB37:
 157:CLI.c         **** 
ARM GAS  C:\Users\jimvr\AppData\Local\Temp\ccRHCRpJ.s 			page 7


 158:CLI.c         **** // Print battery charger status
 159:CLI.c         **** void CLI_PrintBatteryStatus(void) {
 186              		.loc 1 159 0
 187              		.cfi_startproc
 188              		@ args = 0, pretend = 0, frame = 120
 189              		@ frame_needed = 0, uses_anonymous_args = 0
 190 0000 10B5     		push	{r4, lr}
 191              		.cfi_def_cfa_offset 8
 192              		.cfi_offset 4, -8
 193              		.cfi_offset 14, -4
 194 0002 9EB0     		sub	sp, sp, #120
 195              		.cfi_def_cfa_offset 128
 160:CLI.c         ****     char buf[100];
 161:CLI.c         ****     BatteryStatus_t status = BQ25730_GetStatus();
 196              		.loc 1 161 0
 197 0004 01AC     		add	r4, sp, #4
 198 0006 2000     		movs	r0, r4
 199 0008 FFF7FEFF 		bl	BQ25730_GetStatus
 200              	.LVL18:
 162:CLI.c         ****     
 163:CLI.c         ****     CLI_Print("=== Battery Charger (BQ25730) ===\r\n");
 201              		.loc 1 163 0
 202 000c 2448     		ldr	r0, .L16
 203 000e FFF7FEFF 		bl	CLI_Print
 204              	.LVL19:
 164:CLI.c         ****     
 165:CLI.c         ****     sprintf(buf, "  Status Reg: 0x%04X\r\n", status.charger_status);
 205              		.loc 1 165 0
 206 0012 2288     		ldrh	r2, [r4]
 207 0014 2349     		ldr	r1, .L16+4
 208 0016 05A8     		add	r0, sp, #20
 209 0018 FFF7FEFF 		bl	sprintf
 210              	.LVL20:
 166:CLI.c         ****     CLI_Print(buf);
 211              		.loc 1 166 0
 212 001c 05A8     		add	r0, sp, #20
 213 001e FFF7FEFF 		bl	CLI_Print
 214              	.LVL21:
 167:CLI.c         ****     
 168:CLI.c         ****     sprintf(buf, "  Battery:    %u mV, %d mA\r\n", 
 169:CLI.c         ****             status.battery_voltage_mv, status.battery_current_ma);
 215              		.loc 1 169 0
 216 0022 6288     		ldrh	r2, [r4, #2]
 217 0024 0421     		movs	r1, #4
 218 0026 635E     		ldrsh	r3, [r4, r1]
 168:CLI.c         ****             status.battery_voltage_mv, status.battery_current_ma);
 219              		.loc 1 168 0
 220 0028 1F49     		ldr	r1, .L16+8
 221 002a 05A8     		add	r0, sp, #20
 222 002c FFF7FEFF 		bl	sprintf
 223              	.LVL22:
 170:CLI.c         ****     CLI_Print(buf);
 224              		.loc 1 170 0
 225 0030 05A8     		add	r0, sp, #20
 226 0032 FFF7FEFF 		bl	CLI_Print
 227              	.LVL23:
 171:CLI.c         ****     
ARM GAS  C:\Users\jimvr\AppData\Local\Temp\ccRHCRpJ.s 			page 8


 172:CLI.c         ****     sprintf(buf, "  VBUS:       %u mV\r\n", status.vbus_voltage_mv);
 228              		.loc 1 172 0
 229 0036 E288     		ldrh	r2, [r4, #6]
 230 0038 1C49     		ldr	r1, .L16+12
 231 003a 05A8     		add	r0, sp, #20
 232 003c FFF7FEFF 		bl	sprintf
 233              	.LVL24:
 173:CLI.c         ****     CLI_Print(buf);
 234              		.loc 1 173 0
 235 0040 05A8     		add	r0, sp, #20
 236 0042 FFF7FEFF 		bl	CLI_Print
 237              	.LVL25:
 174:CLI.c         ****     
 175:CLI.c         ****     sprintf(buf, "  System:     %u mV\r\n", status.system_voltage_mv);
 238              		.loc 1 175 0
 239 0046 2289     		ldrh	r2, [r4, #8]
 240 0048 1949     		ldr	r1, .L16+16
 241 004a 05A8     		add	r0, sp, #20
 242 004c FFF7FEFF 		bl	sprintf
 243              	.LVL26:
 176:CLI.c         ****     CLI_Print(buf);
 244              		.loc 1 176 0
 245 0050 05A8     		add	r0, sp, #20
 246 0052 FFF7FEFF 		bl	CLI_Print
 247              	.LVL27:
 177:CLI.c         ****     
 178:CLI.c         ****     CLI_Print("  AC Present: ");
 248              		.loc 1 178 0
 249 0056 1748     		ldr	r0, .L16+20
 250 0058 FFF7FEFF 		bl	CLI_Print
 251              	.LVL28:
 179:CLI.c         ****     CLI_Print(status.ac_present ? "YES\r\n" : "NO\r\n");
 252              		.loc 1 179 0
 253 005c 237B     		ldrb	r3, [r4, #12]
 254 005e 002B     		cmp	r3, #0
 255 0060 01D0     		beq	.L13
 256 0062 1548     		ldr	r0, .L16+24
 257 0064 00E0     		b	.L10
 258              	.L13:
 259 0066 1548     		ldr	r0, .L16+28
 260              	.L10:
 261              		.loc 1 179 0 is_stmt 0 discriminator 4
 262 0068 FFF7FEFF 		bl	CLI_Print
 263              	.LVL29:
 180:CLI.c         ****     
 181:CLI.c         ****     CLI_Print("  Charging:   ");
 264              		.loc 1 181 0 is_stmt 1 discriminator 4
 265 006c 1448     		ldr	r0, .L16+32
 266 006e FFF7FEFF 		bl	CLI_Print
 267              	.LVL30:
 182:CLI.c         ****     CLI_Print(status.is_charging ? "YES\r\n" : "NO\r\n");
 268              		.loc 1 182 0 discriminator 4
 269 0072 01AB     		add	r3, sp, #4
 270 0074 9B7A     		ldrb	r3, [r3, #10]
 271 0076 002B     		cmp	r3, #0
 272 0078 01D0     		beq	.L14
 273              		.loc 1 182 0 is_stmt 0
ARM GAS  C:\Users\jimvr\AppData\Local\Temp\ccRHCRpJ.s 			page 9


 274 007a 0F48     		ldr	r0, .L16+24
 275 007c 00E0     		b	.L11
 276              	.L14:
 277 007e 0F48     		ldr	r0, .L16+28
 278              	.L11:
 279              		.loc 1 182 0 discriminator 4
 280 0080 FFF7FEFF 		bl	CLI_Print
 281              	.LVL31:
 183:CLI.c         ****     
 184:CLI.c         ****     CLI_Print("  Faults:     ");
 282              		.loc 1 184 0 is_stmt 1 discriminator 4
 283 0084 0F48     		ldr	r0, .L16+36
 284 0086 FFF7FEFF 		bl	CLI_Print
 285              	.LVL32:
 185:CLI.c         ****     CLI_Print(status.fault_present ? "YES\r\n" : "NONE\r\n");
 286              		.loc 1 185 0 discriminator 4
 287 008a 01AB     		add	r3, sp, #4
 288 008c 5B7B     		ldrb	r3, [r3, #13]
 289 008e 002B     		cmp	r3, #0
 290 0090 01D0     		beq	.L15
 291              		.loc 1 185 0 is_stmt 0
 292 0092 0948     		ldr	r0, .L16+24
 293 0094 00E0     		b	.L12
 294              	.L15:
 295 0096 0C48     		ldr	r0, .L16+40
 296              	.L12:
 297              		.loc 1 185 0 discriminator 4
 298 0098 FFF7FEFF 		bl	CLI_Print
 299              	.LVL33:
 186:CLI.c         **** }
 300              		.loc 1 186 0 is_stmt 1 discriminator 4
 301 009c 1EB0     		add	sp, sp, #120
 302              		@ sp needed
 303 009e 10BD     		pop	{r4, pc}
 304              	.L17:
 305              		.align	2
 306              	.L16:
 307 00a0 8C010000 		.word	.LC32
 308 00a4 B0010000 		.word	.LC34
 309 00a8 C8010000 		.word	.LC36
 310 00ac E8010000 		.word	.LC38
 311 00b0 00020000 		.word	.LC40
 312 00b4 18020000 		.word	.LC42
 313 00b8 74010000 		.word	.LC26
 314 00bc 7C010000 		.word	.LC28
 315 00c0 28020000 		.word	.LC44
 316 00c4 38020000 		.word	.LC46
 317 00c8 84010000 		.word	.LC30
 318              		.cfi_endproc
 319              	.LFE37:
 320              		.size	CLI_PrintBatteryStatus, .-CLI_PrintBatteryStatus
 321              		.global	__aeabi_f2uiz
 322              		.global	__aeabi_f2iz
 323              		.section	.text.CLI_PrintFuelGaugeStatus,"ax",%progbits
 324              		.align	2
 325              		.global	CLI_PrintFuelGaugeStatus
 326              		.code	16
ARM GAS  C:\Users\jimvr\AppData\Local\Temp\ccRHCRpJ.s 			page 10


 327              		.thumb_func
 328              		.type	CLI_PrintFuelGaugeStatus, %function
 329              	CLI_PrintFuelGaugeStatus:
 330              	.LFB38:
 187:CLI.c         **** 
 188:CLI.c         **** // Print fuel gauge status
 189:CLI.c         **** void CLI_PrintFuelGaugeStatus(void) {
 331              		.loc 1 189 0
 332              		.cfi_startproc
 333              		@ args = 0, pretend = 0, frame = 152
 334              		@ frame_needed = 0, uses_anonymous_args = 0
 335 0000 00B5     		push	{lr}
 336              		.cfi_def_cfa_offset 4
 337              		.cfi_offset 14, -4
 338 0002 A7B0     		sub	sp, sp, #156
 339              		.cfi_def_cfa_offset 160
 190:CLI.c         ****     char buf[100];
 191:CLI.c         ****     FuelGauge_t status = LTC2944_GetStatus();
 340              		.loc 1 191 0
 341 0004 02A8     		add	r0, sp, #8
 342 0006 FFF7FEFF 		bl	LTC2944_GetStatus
 343              	.LVL34:
 192:CLI.c         ****     
 193:CLI.c         ****     CLI_Print("=== Fuel Gauge (LTC2944) ===\r\n");
 344              		.loc 1 193 0
 345 000a 3248     		ldr	r0, .L21
 346 000c FFF7FEFF 		bl	CLI_Print
 347              	.LVL35:
 194:CLI.c         ****     
 195:CLI.c         ****     sprintf(buf, "  Status Reg: 0x%02X\r\n", status.status_reg);
 348              		.loc 1 195 0
 349 0010 2023     		movs	r3, #32
 350 0012 02AA     		add	r2, sp, #8
 351 0014 D25C     		ldrb	r2, [r2, r3]
 352 0016 3049     		ldr	r1, .L21+4
 353 0018 0DA8     		add	r0, sp, #52
 354 001a FFF7FEFF 		bl	sprintf
 355              	.LVL36:
 196:CLI.c         ****     CLI_Print(buf);
 356              		.loc 1 196 0
 357 001e 0DA8     		add	r0, sp, #52
 358 0020 FFF7FEFF 		bl	CLI_Print
 359              	.LVL37:
 197:CLI.c         ****     
 198:CLI.c         ****     sprintf(buf, "  Voltage:    %u mV (raw:0x%04X)\r\n", 
 199:CLI.c         ****             (uint16_t)status.voltage_mv, status.voltage_raw);
 360              		.loc 1 199 0
 361 0024 059B     		ldr	r3, [sp, #20]
 362 0026 0193     		str	r3, [sp, #4]
 363 0028 181C     		adds	r0, r3, #0
 364 002a FFF7FEFF 		bl	__aeabi_f2uiz
 365              	.LVL38:
 366 002e 82B2     		uxth	r2, r0
 367 0030 02AB     		add	r3, sp, #8
 368 0032 1B89     		ldrh	r3, [r3, #8]
 198:CLI.c         ****             (uint16_t)status.voltage_mv, status.voltage_raw);
 369              		.loc 1 198 0
ARM GAS  C:\Users\jimvr\AppData\Local\Temp\ccRHCRpJ.s 			page 11


 370 0034 2949     		ldr	r1, .L21+8
 371 0036 0DA8     		add	r0, sp, #52
 372 0038 FFF7FEFF 		bl	sprintf
 373              	.LVL39:
 200:CLI.c         ****     CLI_Print(buf);
 374              		.loc 1 200 0
 375 003c 0DA8     		add	r0, sp, #52
 376 003e FFF7FEFF 		bl	CLI_Print
 377              	.LVL40:
 201:CLI.c         ****     
 202:CLI.c         ****     sprintf(buf, "  Current:    %d mA (raw:0x%04X)\r\n", 
 203:CLI.c         ****             (int16_t)status.current_ma, status.current_raw);
 378              		.loc 1 203 0
 379 0042 079B     		ldr	r3, [sp, #28]
 380 0044 0193     		str	r3, [sp, #4]
 381 0046 181C     		adds	r0, r3, #0
 382 0048 FFF7FEFF 		bl	__aeabi_f2iz
 383              	.LVL41:
 384 004c 02B2     		sxth	r2, r0
 385 004e 02AB     		add	r3, sp, #8
 386 0050 1B8A     		ldrh	r3, [r3, #16]
 202:CLI.c         ****             (int16_t)status.current_ma, status.current_raw);
 387              		.loc 1 202 0
 388 0052 2349     		ldr	r1, .L21+12
 389 0054 0DA8     		add	r0, sp, #52
 390 0056 FFF7FEFF 		bl	sprintf
 391              	.LVL42:
 204:CLI.c         ****     CLI_Print(buf);
 392              		.loc 1 204 0
 393 005a 0DA8     		add	r0, sp, #52
 394 005c FFF7FEFF 		bl	CLI_Print
 395              	.LVL43:
 205:CLI.c         ****     
 206:CLI.c         ****     sprintf(buf, "  Temp:       %d C (raw:0x%04X)\r\n", 
 207:CLI.c         ****             (int16_t)status.temperature_c, status.temperature_raw);
 396              		.loc 1 207 0
 397 0060 099B     		ldr	r3, [sp, #36]
 398 0062 0193     		str	r3, [sp, #4]
 399 0064 181C     		adds	r0, r3, #0
 400 0066 FFF7FEFF 		bl	__aeabi_f2iz
 401              	.LVL44:
 402 006a 02B2     		sxth	r2, r0
 403 006c 02AB     		add	r3, sp, #8
 404 006e 1B8B     		ldrh	r3, [r3, #24]
 206:CLI.c         ****             (int16_t)status.temperature_c, status.temperature_raw);
 405              		.loc 1 206 0
 406 0070 1C49     		ldr	r1, .L21+16
 407 0072 0DA8     		add	r0, sp, #52
 408 0074 FFF7FEFF 		bl	sprintf
 409              	.LVL45:
 208:CLI.c         ****     CLI_Print(buf);
 410              		.loc 1 208 0
 411 0078 0DA8     		add	r0, sp, #52
 412 007a FFF7FEFF 		bl	CLI_Print
 413              	.LVL46:
 209:CLI.c         ****     
 210:CLI.c         ****     sprintf(buf, "  Acc Charge: %u mAh (raw:0x%04X)\r\n", 
ARM GAS  C:\Users\jimvr\AppData\Local\Temp\ccRHCRpJ.s 			page 12


 211:CLI.c         ****             (uint16_t)status.accumulated_charge_mAh, status.accumulated_charge_raw);
 414              		.loc 1 211 0
 415 007e 039B     		ldr	r3, [sp, #12]
 416 0080 0193     		str	r3, [sp, #4]
 417 0082 181C     		adds	r0, r3, #0
 418 0084 FFF7FEFF 		bl	__aeabi_f2uiz
 419              	.LVL47:
 420 0088 82B2     		uxth	r2, r0
 421 008a 02AB     		add	r3, sp, #8
 422 008c 1B88     		ldrh	r3, [r3]
 210:CLI.c         ****             (uint16_t)status.accumulated_charge_mAh, status.accumulated_charge_raw);
 423              		.loc 1 210 0
 424 008e 1649     		ldr	r1, .L21+20
 425 0090 0DA8     		add	r0, sp, #52
 426 0092 FFF7FEFF 		bl	sprintf
 427              	.LVL48:
 212:CLI.c         ****     CLI_Print(buf);
 428              		.loc 1 212 0
 429 0096 0DA8     		add	r0, sp, #52
 430 0098 FFF7FEFF 		bl	CLI_Print
 431              	.LVL49:
 213:CLI.c         ****     
 214:CLI.c         ****     sprintf(buf, "  SOC:        %u %%\r\n", (uint16_t)status.state_of_charge);
 432              		.loc 1 214 0
 433 009c 0B9B     		ldr	r3, [sp, #44]
 434 009e 0193     		str	r3, [sp, #4]
 435 00a0 181C     		adds	r0, r3, #0
 436 00a2 FFF7FEFF 		bl	__aeabi_f2uiz
 437              	.LVL50:
 438 00a6 82B2     		uxth	r2, r0
 439 00a8 1049     		ldr	r1, .L21+24
 440 00aa 0DA8     		add	r0, sp, #52
 441 00ac FFF7FEFF 		bl	sprintf
 442              	.LVL51:
 215:CLI.c         ****     CLI_Print(buf);
 443              		.loc 1 215 0
 444 00b0 0DA8     		add	r0, sp, #52
 445 00b2 FFF7FEFF 		bl	CLI_Print
 446              	.LVL52:
 216:CLI.c         ****     
 217:CLI.c         ****     CLI_Print("  Alerts:     ");
 447              		.loc 1 217 0
 448 00b6 0E48     		ldr	r0, .L21+28
 449 00b8 FFF7FEFF 		bl	CLI_Print
 450              	.LVL53:
 218:CLI.c         ****     CLI_Print(status.alert_present ? "YES\r\n" : "NONE\r\n");
 451              		.loc 1 218 0
 452 00bc 2823     		movs	r3, #40
 453 00be 02AA     		add	r2, sp, #8
 454 00c0 D35C     		ldrb	r3, [r2, r3]
 455 00c2 002B     		cmp	r3, #0
 456 00c4 01D0     		beq	.L20
 457 00c6 0B48     		ldr	r0, .L21+32
 458 00c8 00E0     		b	.L19
 459              	.L20:
 460 00ca 0B48     		ldr	r0, .L21+36
 461              	.L19:
ARM GAS  C:\Users\jimvr\AppData\Local\Temp\ccRHCRpJ.s 			page 13


 462              		.loc 1 218 0 is_stmt 0 discriminator 4
 463 00cc FFF7FEFF 		bl	CLI_Print
 464              	.LVL54:
 219:CLI.c         **** }
 465              		.loc 1 219 0 is_stmt 1 discriminator 4
 466 00d0 27B0     		add	sp, sp, #156
 467              		@ sp needed
 468 00d2 00BD     		pop	{pc}
 469              	.L22:
 470              		.align	2
 471              	.L21:
 472 00d4 48020000 		.word	.LC50
 473 00d8 68020000 		.word	.LC52
 474 00dc 80020000 		.word	.LC54
 475 00e0 A4020000 		.word	.LC56
 476 00e4 C8020000 		.word	.LC58
 477 00e8 EC020000 		.word	.LC60
 478 00ec 10030000 		.word	.LC62
 479 00f0 28030000 		.word	.LC64
 480 00f4 74010000 		.word	.LC26
 481 00f8 84010000 		.word	.LC30
 482              		.cfi_endproc
 483              	.LFE38:
 484              		.size	CLI_PrintFuelGaugeStatus, .-CLI_PrintFuelGaugeStatus
 485              		.section	.text.CLI_ReadChargerRegisters,"ax",%progbits
 486              		.align	2
 487              		.global	CLI_ReadChargerRegisters
 488              		.code	16
 489              		.thumb_func
 490              		.type	CLI_ReadChargerRegisters, %function
 491              	CLI_ReadChargerRegisters:
 492              	.LFB39:
 220:CLI.c         **** 
 221:CLI.c         **** // Read and display key charger registers for debugging
 222:CLI.c         **** void CLI_ReadChargerRegisters(void) {
 493              		.loc 1 222 0
 494              		.cfi_startproc
 495              		@ args = 0, pretend = 0, frame = 80
 496              		@ frame_needed = 0, uses_anonymous_args = 0
 497 0000 F0B5     		push	{r4, r5, r6, r7, lr}
 498              		.cfi_def_cfa_offset 20
 499              		.cfi_offset 4, -20
 500              		.cfi_offset 5, -16
 501              		.cfi_offset 6, -12
 502              		.cfi_offset 7, -8
 503              		.cfi_offset 14, -4
 504 0002 95B0     		sub	sp, sp, #84
 505              		.cfi_def_cfa_offset 104
 223:CLI.c         ****     char buf[80];
 224:CLI.c         ****     
 225:CLI.c         ****     // Try to read manufacturer ID and device ID
 226:CLI.c         ****     uint16_t mfr_id = BQ25730_Read(BQ25730_MANUFACTURER_ID);
 506              		.loc 1 226 0
 507 0004 FE20     		movs	r0, #254
 508 0006 FFF7FEFF 		bl	BQ25730_Read
 509              	.LVL55:
 510 000a 0500     		movs	r5, r0
ARM GAS  C:\Users\jimvr\AppData\Local\Temp\ccRHCRpJ.s 			page 14


 511              	.LVL56:
 227:CLI.c         ****     uint16_t dev_id = BQ25730_Read(BQ25730_DEVICE_ID);
 512              		.loc 1 227 0
 513 000c FF20     		movs	r0, #255
 514 000e FFF7FEFF 		bl	BQ25730_Read
 515              	.LVL57:
 516 0012 0400     		movs	r4, r0
 517              	.LVL58:
 228:CLI.c         ****     
 229:CLI.c         ****     sprintf(buf, "  Mfr ID:     0x%04X (expect 0x0040)\r\n", mfr_id);
 518              		.loc 1 229 0
 519 0014 2A00     		movs	r2, r5
 520 0016 2149     		ldr	r1, .L24
 521 0018 6846     		mov	r0, sp
 522 001a FFF7FEFF 		bl	sprintf
 523              	.LVL59:
 230:CLI.c         ****     CLI_Print(buf);
 524              		.loc 1 230 0
 525 001e 6846     		mov	r0, sp
 526 0020 FFF7FEFF 		bl	CLI_Print
 527              	.LVL60:
 231:CLI.c         ****     
 232:CLI.c         ****     sprintf(buf, "  Dev ID:     0x%04X (expect 0x0773)\r\n", dev_id);
 528              		.loc 1 232 0
 529 0024 2200     		movs	r2, r4
 530 0026 1E49     		ldr	r1, .L24+4
 531 0028 6846     		mov	r0, sp
 532 002a FFF7FEFF 		bl	sprintf
 533              	.LVL61:
 233:CLI.c         ****     CLI_Print(buf);
 534              		.loc 1 233 0
 535 002e 6846     		mov	r0, sp
 536 0030 FFF7FEFF 		bl	CLI_Print
 537              	.LVL62:
 234:CLI.c         ****     
 235:CLI.c         ****     // Read key configuration registers
 236:CLI.c         ****     uint16_t charge_opt0 = BQ25730_Read(BQ25730_CHARGE_OPTION_0);
 538              		.loc 1 236 0
 539 0034 1220     		movs	r0, #18
 540 0036 FFF7FEFF 		bl	BQ25730_Read
 541              	.LVL63:
 542 003a 0700     		movs	r7, r0
 543              	.LVL64:
 237:CLI.c         ****     uint16_t charge_curr = BQ25730_Read(BQ25730_CHARGE_CURRENT);
 544              		.loc 1 237 0
 545 003c 1420     		movs	r0, #20
 546 003e FFF7FEFF 		bl	BQ25730_Read
 547              	.LVL65:
 548 0042 0500     		movs	r5, r0
 549              	.LVL66:
 238:CLI.c         ****     uint16_t charge_volt = BQ25730_Read(BQ25730_MAX_CHARGE_VOLTAGE);
 550              		.loc 1 238 0
 551 0044 1520     		movs	r0, #21
 552 0046 FFF7FEFF 		bl	BQ25730_Read
 553              	.LVL67:
 554 004a 0400     		movs	r4, r0
 555              	.LVL68:
ARM GAS  C:\Users\jimvr\AppData\Local\Temp\ccRHCRpJ.s 			page 15


 239:CLI.c         ****     uint16_t status = BQ25730_Read(BQ25730_CHARGER_STATUS);
 556              		.loc 1 239 0
 557 004c 2020     		movs	r0, #32
 558 004e FFF7FEFF 		bl	BQ25730_Read
 559              	.LVL69:
 560 0052 0600     		movs	r6, r0
 561              	.LVL70:
 240:CLI.c         ****     
 241:CLI.c         ****     sprintf(buf, "  ChgOpt0:    0x%04X\r\n", charge_opt0);
 562              		.loc 1 241 0
 563 0054 3A00     		movs	r2, r7
 564 0056 1349     		ldr	r1, .L24+8
 565 0058 6846     		mov	r0, sp
 566 005a FFF7FEFF 		bl	sprintf
 567              	.LVL71:
 242:CLI.c         ****     CLI_Print(buf);
 568              		.loc 1 242 0
 569 005e 6846     		mov	r0, sp
 570 0060 FFF7FEFF 		bl	CLI_Print
 571              	.LVL72:
 243:CLI.c         ****     
 244:CLI.c         ****     sprintf(buf, "  ChgCurr:    0x%04X (%u mA)\r\n", charge_curr, charge_curr * 64);
 572              		.loc 1 244 0
 573 0064 AB01     		lsls	r3, r5, #6
 574 0066 2A00     		movs	r2, r5
 575 0068 0F49     		ldr	r1, .L24+12
 576 006a 6846     		mov	r0, sp
 577 006c FFF7FEFF 		bl	sprintf
 578              	.LVL73:
 245:CLI.c         ****     CLI_Print(buf);
 579              		.loc 1 245 0
 580 0070 6846     		mov	r0, sp
 581 0072 FFF7FEFF 		bl	CLI_Print
 582              	.LVL74:
 246:CLI.c         ****     
 247:CLI.c         ****     sprintf(buf, "  ChgVolt:    0x%04X (%u mV)\r\n", charge_volt, charge_volt * 8);
 583              		.loc 1 247 0
 584 0076 E300     		lsls	r3, r4, #3
 585 0078 2200     		movs	r2, r4
 586 007a 0C49     		ldr	r1, .L24+16
 587 007c 6846     		mov	r0, sp
 588 007e FFF7FEFF 		bl	sprintf
 589              	.LVL75:
 248:CLI.c         ****     CLI_Print(buf);
 590              		.loc 1 248 0
 591 0082 6846     		mov	r0, sp
 592 0084 FFF7FEFF 		bl	CLI_Print
 593              	.LVL76:
 249:CLI.c         ****     
 250:CLI.c         ****     sprintf(buf, "  Status:     0x%04X\r\n", status);
 594              		.loc 1 250 0
 595 0088 3200     		movs	r2, r6
 596 008a 0949     		ldr	r1, .L24+20
 597 008c 6846     		mov	r0, sp
 598 008e FFF7FEFF 		bl	sprintf
 599              	.LVL77:
 251:CLI.c         ****     CLI_Print(buf);
ARM GAS  C:\Users\jimvr\AppData\Local\Temp\ccRHCRpJ.s 			page 16


 600              		.loc 1 251 0
 601 0092 6846     		mov	r0, sp
 602 0094 FFF7FEFF 		bl	CLI_Print
 603              	.LVL78:
 252:CLI.c         **** }
 604              		.loc 1 252 0
 605 0098 15B0     		add	sp, sp, #84
 606              		@ sp needed
 607              	.LVL79:
 608              	.LVL80:
 609              	.LVL81:
 610              	.LVL82:
 611 009a F0BD     		pop	{r4, r5, r6, r7, pc}
 612              	.L25:
 613              		.align	2
 614              	.L24:
 615 009c 38030000 		.word	.LC66
 616 00a0 60030000 		.word	.LC68
 617 00a4 88030000 		.word	.LC70
 618 00a8 A0030000 		.word	.LC72
 619 00ac C0030000 		.word	.LC74
 620 00b0 E0030000 		.word	.LC76
 621              		.cfi_endproc
 622              	.LFE39:
 623              		.size	CLI_ReadChargerRegisters, .-CLI_ReadChargerRegisters
 624              		.section	.text.CLI_I2CScan,"ax",%progbits
 625              		.align	2
 626              		.global	CLI_I2CScan
 627              		.code	16
 628              		.thumb_func
 629              		.type	CLI_I2CScan, %function
 630              	CLI_I2CScan:
 631              	.LFB40:
 253:CLI.c         **** 
 254:CLI.c         **** // Scan I2C bus for devices
 255:CLI.c         **** void CLI_I2CScan(void) {
 632              		.loc 1 255 0
 633              		.cfi_startproc
 634              		@ args = 0, pretend = 0, frame = 64
 635              		@ frame_needed = 0, uses_anonymous_args = 0
 636 0000 F0B5     		push	{r4, r5, r6, r7, lr}
 637              		.cfi_def_cfa_offset 20
 638              		.cfi_offset 4, -20
 639              		.cfi_offset 5, -16
 640              		.cfi_offset 6, -12
 641              		.cfi_offset 7, -8
 642              		.cfi_offset 14, -4
 643 0002 91B0     		sub	sp, sp, #68
 644              		.cfi_def_cfa_offset 88
 645              	.LVL83:
 256:CLI.c         ****     char buf[60];
 257:CLI.c         ****     uint8_t found = 0;
 258:CLI.c         ****     
 259:CLI.c         ****     CLI_Print("  Scanning 0x00-0x7F...\r\n");
 646              		.loc 1 259 0
 647 0004 2D48     		ldr	r0, .L36
 648 0006 FFF7FEFF 		bl	CLI_Print
ARM GAS  C:\Users\jimvr\AppData\Local\Temp\ccRHCRpJ.s 			page 17


 649              	.LVL84:
 650              	.LBB2:
 260:CLI.c         ****     
 261:CLI.c         ****     for (uint8_t addr = 0x08; addr < 0x78; addr++) {
 651              		.loc 1 261 0
 652 000a 0825     		movs	r5, #8
 653              	.LBE2:
 257:CLI.c         ****     
 654              		.loc 1 257 0
 655 000c 0027     		movs	r7, #0
 656              	.LBB4:
 657              		.loc 1 261 0
 658 000e 48E0     		b	.L27
 659              	.LVL85:
 660              	.L35:
 661              	.LBB3:
 262:CLI.c         ****         uint8_t dummy = 0;
 662              		.loc 1 262 0
 663 0010 6B46     		mov	r3, sp
 664 0012 DC1C     		adds	r4, r3, #3
 665 0014 0023     		movs	r3, #0
 666 0016 2370     		strb	r3, [r4]
 263:CLI.c         ****         
 264:CLI.c         ****         // Try to write 0 bytes (just address) to check for ACK
 265:CLI.c         ****         I2CM_I2CMasterClearStatus();
 667              		.loc 1 265 0
 668 0018 FFF7FEFF 		bl	I2CM_I2CMasterClearStatus
 669              	.LVL86:
 266:CLI.c         ****         uint32_t status = I2CM_I2CMasterWriteBuf(addr, &dummy, 0, I2CM_I2C_MODE_COMPLETE_XFER);
 670              		.loc 1 266 0
 671 001c 0023     		movs	r3, #0
 672 001e 0022     		movs	r2, #0
 673 0020 2100     		movs	r1, r4
 674 0022 2800     		movs	r0, r5
 675 0024 FFF7FEFF 		bl	I2CM_I2CMasterWriteBuf
 676              	.LVL87:
 677 0028 0600     		movs	r6, r0
 678              	.LVL88:
 267:CLI.c         ****         
 268:CLI.c         ****         // Wait for operation to complete with timeout
 269:CLI.c         ****         uint16_t timeout = 100;
 679              		.loc 1 269 0
 680 002a 6424     		movs	r4, #100
 270:CLI.c         ****         while ((I2CM_I2CMasterStatus() & I2CM_I2C_MSTAT_XFER_INP) && timeout > 0) {
 681              		.loc 1 270 0
 682 002c 04E0     		b	.L28
 683              	.LVL89:
 684              	.L30:
 271:CLI.c         ****             CyDelayUs(10);
 685              		.loc 1 271 0
 686 002e 0A20     		movs	r0, #10
 687 0030 FFF7FEFF 		bl	CyDelayUs
 688              	.LVL90:
 272:CLI.c         ****             timeout--;
 689              		.loc 1 272 0
 690 0034 013C     		subs	r4, r4, #1
 691              	.LVL91:
ARM GAS  C:\Users\jimvr\AppData\Local\Temp\ccRHCRpJ.s 			page 18


 692 0036 A4B2     		uxth	r4, r4
 693              	.LVL92:
 694              	.L28:
 270:CLI.c         ****         while ((I2CM_I2CMasterStatus() & I2CM_I2C_MSTAT_XFER_INP) && timeout > 0) {
 695              		.loc 1 270 0
 696 0038 FFF7FEFF 		bl	I2CM_I2CMasterStatus
 697              	.LVL93:
 698 003c 4307     		lsls	r3, r0, #29
 699 003e 01D5     		bpl	.L29
 270:CLI.c         ****         while ((I2CM_I2CMasterStatus() & I2CM_I2C_MSTAT_XFER_INP) && timeout > 0) {
 700              		.loc 1 270 0 is_stmt 0 discriminator 1
 701 0040 002C     		cmp	r4, #0
 702 0042 F4D1     		bne	.L30
 703              	.L29:
 273:CLI.c         ****         }
 274:CLI.c         ****         
 275:CLI.c         ****         // Check if device ACK'd
 276:CLI.c         ****         uint32_t i2c_status = I2CM_I2CMasterStatus();
 704              		.loc 1 276 0 is_stmt 1
 705 0044 FFF7FEFF 		bl	I2CM_I2CMasterStatus
 706              	.LVL94:
 277:CLI.c         ****         if ((status == I2CM_I2C_MSTR_NO_ERROR) && 
 707              		.loc 1 277 0
 708 0048 002E     		cmp	r6, #0
 709 004a 23D1     		bne	.L31
 710              		.loc 1 277 0 is_stmt 0 discriminator 1
 711 004c 8305     		lsls	r3, r0, #22
 712 004e 21D4     		bmi	.L31
 278:CLI.c         ****             !(i2c_status & I2CM_I2C_MSTAT_ERR_XFER)) {
 279:CLI.c         ****             found++;
 713              		.loc 1 279 0 is_stmt 1
 714 0050 0137     		adds	r7, r7, #1
 715              	.LVL95:
 716 0052 FFB2     		uxtb	r7, r7
 717              	.LVL96:
 280:CLI.c         ****             sprintf(buf, "    Found device at 0x%02X", addr);
 718              		.loc 1 280 0
 719 0054 2A00     		movs	r2, r5
 720 0056 1A49     		ldr	r1, .L36+4
 721 0058 01A8     		add	r0, sp, #4
 722              	.LVL97:
 723 005a FFF7FEFF 		bl	sprintf
 724              	.LVL98:
 281:CLI.c         ****             CLI_Print(buf);
 725              		.loc 1 281 0
 726 005e 01A8     		add	r0, sp, #4
 727 0060 FFF7FEFF 		bl	CLI_Print
 728              	.LVL99:
 282:CLI.c         ****             
 283:CLI.c         ****             // Identify known devices
 284:CLI.c         ****             if (addr == BQ25730_ADDR) {
 729              		.loc 1 284 0
 730 0064 6B2D     		cmp	r5, #107
 731 0066 03D1     		bne	.L32
 285:CLI.c         ****                 CLI_Print(" (BQ25730 Charger)\r\n");
 732              		.loc 1 285 0
 733 0068 1648     		ldr	r0, .L36+8
ARM GAS  C:\Users\jimvr\AppData\Local\Temp\ccRHCRpJ.s 			page 19


 734 006a FFF7FEFF 		bl	CLI_Print
 735              	.LVL100:
 736 006e 11E0     		b	.L31
 737              	.L32:
 286:CLI.c         ****             } else if (addr == LTC2944_ADDR) {
 738              		.loc 1 286 0
 739 0070 642D     		cmp	r5, #100
 740 0072 03D1     		bne	.L33
 287:CLI.c         ****                 CLI_Print(" (LTC2944 Fuel Gauge)\r\n");
 741              		.loc 1 287 0
 742 0074 1448     		ldr	r0, .L36+12
 743 0076 FFF7FEFF 		bl	CLI_Print
 744              	.LVL101:
 745 007a 0BE0     		b	.L31
 746              	.L33:
 288:CLI.c         ****             } else if (addr == 0x70 || addr == 0x71) {
 747              		.loc 1 288 0
 748 007c 2B00     		movs	r3, r5
 749 007e 703B     		subs	r3, r3, #112
 750 0080 DBB2     		uxtb	r3, r3
 751 0082 012B     		cmp	r3, #1
 752 0084 03D8     		bhi	.L34
 289:CLI.c         ****                 CLI_Print(" (PCLA9538 Latch)\r\n");
 753              		.loc 1 289 0
 754 0086 1148     		ldr	r0, .L36+16
 755 0088 FFF7FEFF 		bl	CLI_Print
 756              	.LVL102:
 757 008c 02E0     		b	.L31
 758              	.L34:
 290:CLI.c         ****             } else {
 291:CLI.c         ****                 CLI_Print("\r\n");
 759              		.loc 1 291 0
 760 008e 1048     		ldr	r0, .L36+20
 761 0090 FFF7FEFF 		bl	CLI_Print
 762              	.LVL103:
 763              	.L31:
 292:CLI.c         ****             }
 293:CLI.c         ****         }
 294:CLI.c         ****         
 295:CLI.c         ****         I2CM_I2CMasterClearStatus();
 764              		.loc 1 295 0 discriminator 2
 765 0094 FFF7FEFF 		bl	I2CM_I2CMasterClearStatus
 766              	.LVL104:
 296:CLI.c         ****         CyDelay(1);
 767              		.loc 1 296 0 discriminator 2
 768 0098 0120     		movs	r0, #1
 769 009a FFF7FEFF 		bl	CyDelay
 770              	.LVL105:
 771              	.LBE3:
 261:CLI.c         ****         uint8_t dummy = 0;
 772              		.loc 1 261 0 discriminator 2
 773 009e 0135     		adds	r5, r5, #1
 774              	.LVL106:
 775 00a0 EDB2     		uxtb	r5, r5
 776              	.LVL107:
 777              	.L27:
 261:CLI.c         ****         uint8_t dummy = 0;
ARM GAS  C:\Users\jimvr\AppData\Local\Temp\ccRHCRpJ.s 			page 20


 778              		.loc 1 261 0 is_stmt 0 discriminator 1
 779 00a2 772D     		cmp	r5, #119
 780 00a4 B4D9     		bls	.L35
 781              	.LBE4:
 297:CLI.c         ****     }
 298:CLI.c         ****     
 299:CLI.c         ****     sprintf(buf, "  Scan complete. Found %u device(s)\r\n", found);
 782              		.loc 1 299 0 is_stmt 1
 783 00a6 3A00     		movs	r2, r7
 784 00a8 0A49     		ldr	r1, .L36+24
 785 00aa 01A8     		add	r0, sp, #4
 786 00ac FFF7FEFF 		bl	sprintf
 787              	.LVL108:
 300:CLI.c         ****     CLI_Print(buf);
 788              		.loc 1 300 0
 789 00b0 01A8     		add	r0, sp, #4
 790 00b2 FFF7FEFF 		bl	CLI_Print
 791              	.LVL109:
 301:CLI.c         **** }
 792              		.loc 1 301 0
 793 00b6 11B0     		add	sp, sp, #68
 794              		@ sp needed
 795              	.LVL110:
 796              	.LVL111:
 797 00b8 F0BD     		pop	{r4, r5, r6, r7, pc}
 798              	.L37:
 799 00ba C046     		.align	2
 800              	.L36:
 801 00bc F8030000 		.word	.LC78
 802 00c0 14040000 		.word	.LC80
 803 00c4 30040000 		.word	.LC82
 804 00c8 48040000 		.word	.LC84
 805 00cc 60040000 		.word	.LC86
 806 00d0 74040000 		.word	.LC88
 807 00d4 78040000 		.word	.LC90
 808              		.cfi_endproc
 809              	.LFE40:
 810              		.size	CLI_I2CScan, .-CLI_I2CScan
 811              		.section	.text.CLI_ProcessByte,"ax",%progbits
 812              		.align	2
 813              		.global	CLI_ProcessByte
 814              		.code	16
 815              		.thumb_func
 816              		.type	CLI_ProcessByte, %function
 817              	CLI_ProcessByte:
 818              	.LFB35:
  32:CLI.c         ****     // Echo character
 819              		.loc 1 32 0
 820              		.cfi_startproc
 821              		@ args = 0, pretend = 0, frame = 8
 822              		@ frame_needed = 0, uses_anonymous_args = 0
 823              	.LVL112:
 824 0000 30B5     		push	{r4, r5, lr}
 825              		.cfi_def_cfa_offset 12
 826              		.cfi_offset 4, -12
 827              		.cfi_offset 5, -8
 828              		.cfi_offset 14, -4
ARM GAS  C:\Users\jimvr\AppData\Local\Temp\ccRHCRpJ.s 			page 21


 829 0002 83B0     		sub	sp, sp, #12
 830              		.cfi_def_cfa_offset 24
 831 0004 0400     		movs	r4, r0
  34:CLI.c         ****     if (byte >= 32 && byte < 127) {
 832              		.loc 1 34 0
 833 0006 01AB     		add	r3, sp, #4
 834 0008 1870     		strb	r0, [r3]
 835 000a 0022     		movs	r2, #0
 836 000c 5A70     		strb	r2, [r3, #1]
  35:CLI.c         ****         UART_SpiUartPutArray((const uint8_t*)echo, 1);
 837              		.loc 1 35 0
 838 000e 0500     		movs	r5, r0
 839 0010 203D     		subs	r5, r5, #32
 840 0012 EDB2     		uxtb	r5, r5
 841 0014 5E2D     		cmp	r5, #94
 842 0016 03D8     		bhi	.L39
  36:CLI.c         ****     }
 843              		.loc 1 36 0
 844 0018 0121     		movs	r1, #1
 845 001a 1800     		movs	r0, r3
 846              	.LVL113:
 847 001c FFF7FEFF 		bl	UART_SpiUartPutArray
 848              	.LVL114:
 849              	.L39:
  40:CLI.c         ****         if (cli_index > 0) {
 850              		.loc 1 40 0
 851 0020 082C     		cmp	r4, #8
 852 0022 01D0     		beq	.L40
  40:CLI.c         ****         if (cli_index > 0) {
 853              		.loc 1 40 0 is_stmt 0 discriminator 1
 854 0024 7F2C     		cmp	r4, #127
 855 0026 0FD1     		bne	.L41
 856              	.L40:
  41:CLI.c         ****             cli_index--;
 857              		.loc 1 41 0 is_stmt 1
 858 0028 474B     		ldr	r3, .L62
 859 002a 1B78     		ldrb	r3, [r3]
 860 002c 002B     		cmp	r3, #0
 861 002e 00D1     		bne	.LCB736
 862 0030 87E0     		b	.L38	@long jump
 863              	.LCB736:
  42:CLI.c         ****             cli_buffer[cli_index] = '\0';
 864              		.loc 1 42 0
 865 0032 013B     		subs	r3, r3, #1
 866 0034 DBB2     		uxtb	r3, r3
 867 0036 444A     		ldr	r2, .L62
 868 0038 1370     		strb	r3, [r2]
  43:CLI.c         ****             CLI_Print("\b \b");  // Backspace, space, backspace
 869              		.loc 1 43 0
 870 003a D318     		adds	r3, r2, r3
 871 003c 0022     		movs	r2, #0
 872 003e 1A71     		strb	r2, [r3, #4]
  44:CLI.c         ****         }
 873              		.loc 1 44 0
 874 0040 4248     		ldr	r0, .L62+4
 875 0042 FFF7FEFF 		bl	CLI_Print
 876              	.LVL115:
ARM GAS  C:\Users\jimvr\AppData\Local\Temp\ccRHCRpJ.s 			page 22


 877 0046 7CE0     		b	.L38
 878              	.L41:
  50:CLI.c         ****         CLI_Print("\r\n");
 879              		.loc 1 50 0
 880 0048 0D2C     		cmp	r4, #13
 881 004a 01D0     		beq	.L43
  50:CLI.c         ****         CLI_Print("\r\n");
 882              		.loc 1 50 0 is_stmt 0 discriminator 1
 883 004c 0A2C     		cmp	r4, #10
 884 004e 69D1     		bne	.L44
 885              	.L43:
  51:CLI.c         ****         
 886              		.loc 1 51 0 is_stmt 1
 887 0050 3F48     		ldr	r0, .L62+8
 888 0052 FFF7FEFF 		bl	CLI_Print
 889              	.LVL116:
  53:CLI.c         ****             // Process command
 890              		.loc 1 53 0
 891 0056 3C4B     		ldr	r3, .L62
 892 0058 1B78     		ldrb	r3, [r3]
 893 005a 002B     		cmp	r3, #0
 894 005c 56D0     		beq	.L45
 895              	.LBB5:
  55:CLI.c         ****             
 896              		.loc 1 55 0
 897 005e 3A4B     		ldr	r3, .L62
 898 0060 1B79     		ldrb	r3, [r3, #4]
 899              	.LVL117:
  57:CLI.c         ****                 case 'h':  // Help
 900              		.loc 1 57 0
 901 0062 3F3B     		subs	r3, r3, #63
 902              	.LVL118:
 903 0064 DAB2     		uxtb	r2, r3
 904 0066 342A     		cmp	r2, #52
 905 0068 4DD8     		bhi	.L46
 906 006a 9300     		lsls	r3, r2, #2
 907              	.LVL119:
 908 006c 394A     		ldr	r2, .L62+12
 909 006e D358     		ldr	r3, [r2, r3]
 910 0070 9F46     		mov	pc, r3
 911              		.section	.rodata
 912              		.align	2
 913              	.L48:
 914 0000 72000000 		.word	.L47
 915 0004 06010000 		.word	.L46
 916 0008 DE000000 		.word	.L49
 917 000c 78000000 		.word	.L50
 918 0010 06010000 		.word	.L46
 919 0014 D0000000 		.word	.L51
 920 0018 C2000000 		.word	.L52
 921 001c 7E000000 		.word	.L53
 922 0020 06010000 		.word	.L46
 923 0024 72000000 		.word	.L47
 924 0028 84000000 		.word	.L54
 925 002c 06010000 		.word	.L46
 926 0030 06010000 		.word	.L46
 927 0034 06010000 		.word	.L46
ARM GAS  C:\Users\jimvr\AppData\Local\Temp\ccRHCRpJ.s 			page 23


 928 0038 06010000 		.word	.L46
 929 003c 06010000 		.word	.L46
 930 0040 06010000 		.word	.L46
 931 0044 06010000 		.word	.L46
 932 0048 06010000 		.word	.L46
 933 004c EE000000 		.word	.L55
 934 0050 FA000000 		.word	.L56
 935 0054 06010000 		.word	.L46
 936 0058 06010000 		.word	.L46
 937 005c 06010000 		.word	.L46
 938 0060 06010000 		.word	.L46
 939 0064 06010000 		.word	.L46
 940 0068 06010000 		.word	.L46
 941 006c 06010000 		.word	.L46
 942 0070 06010000 		.word	.L46
 943 0074 06010000 		.word	.L46
 944 0078 06010000 		.word	.L46
 945 007c 06010000 		.word	.L46
 946 0080 06010000 		.word	.L46
 947 0084 06010000 		.word	.L46
 948 0088 DE000000 		.word	.L49
 949 008c 78000000 		.word	.L50
 950 0090 06010000 		.word	.L46
 951 0094 D0000000 		.word	.L51
 952 0098 C2000000 		.word	.L52
 953 009c 7E000000 		.word	.L53
 954 00a0 06010000 		.word	.L46
 955 00a4 72000000 		.word	.L47
 956 00a8 84000000 		.word	.L54
 957 00ac 06010000 		.word	.L46
 958 00b0 06010000 		.word	.L46
 959 00b4 06010000 		.word	.L46
 960 00b8 06010000 		.word	.L46
 961 00bc 06010000 		.word	.L46
 962 00c0 06010000 		.word	.L46
 963 00c4 06010000 		.word	.L46
 964 00c8 06010000 		.word	.L46
 965 00cc EE000000 		.word	.L55
 966 00d0 FA000000 		.word	.L56
 967              		.section	.text.CLI_ProcessByte
 968              	.L47:
  61:CLI.c         ****                     break;
 969              		.loc 1 61 0
 970 0072 FFF7FEFF 		bl	CLI_PrintHelp
 971              	.LVL120:
  62:CLI.c         ****                     
 972              		.loc 1 62 0
 973 0076 49E0     		b	.L45
 974              	.LVL121:
 975              	.L50:
  66:CLI.c         ****                     break;
 976              		.loc 1 66 0
 977 0078 FFF7FEFF 		bl	CLI_PrintBatteryStatus
 978              	.LVL122:
  67:CLI.c         ****                     
 979              		.loc 1 67 0
 980 007c 46E0     		b	.L45
ARM GAS  C:\Users\jimvr\AppData\Local\Temp\ccRHCRpJ.s 			page 24


 981              	.LVL123:
 982              	.L53:
  71:CLI.c         ****                     break;
 983              		.loc 1 71 0
 984 007e FFF7FEFF 		bl	CLI_PrintFuelGaugeStatus
 985              	.LVL124:
  72:CLI.c         ****                     
 986              		.loc 1 72 0
 987 0082 43E0     		b	.L45
 988              	.LVL125:
 989              	.L54:
  76:CLI.c         ****                     if (BQ25730_Init()) {
 990              		.loc 1 76 0
 991 0084 3448     		ldr	r0, .L62+16
 992 0086 FFF7FEFF 		bl	CLI_Print
 993              	.LVL126:
  77:CLI.c         ****                         CLI_Print("  Charger OK\r\n");
 994              		.loc 1 77 0
 995 008a FFF7FEFF 		bl	BQ25730_Init
 996              	.LVL127:
 997 008e 0028     		cmp	r0, #0
 998 0090 03D0     		beq	.L57
  78:CLI.c         ****                     } else {
 999              		.loc 1 78 0
 1000 0092 3248     		ldr	r0, .L62+20
 1001 0094 FFF7FEFF 		bl	CLI_Print
 1002              	.LVL128:
 1003 0098 02E0     		b	.L58
 1004              	.L57:
  80:CLI.c         ****                     }
 1005              		.loc 1 80 0
 1006 009a 3148     		ldr	r0, .L62+24
 1007 009c FFF7FEFF 		bl	CLI_Print
 1008              	.LVL129:
 1009              	.L58:
  83:CLI.c         ****                     if (LTC2944_Init((uint16_t)BATTERY_CAPACITY_MAH, LTC2944_PRESCALER_M_1024)) {
 1010              		.loc 1 83 0
 1011 00a0 3048     		ldr	r0, .L62+28
 1012 00a2 FFF7FEFF 		bl	CLI_Print
 1013              	.LVL130:
  84:CLI.c         ****                         CLI_Print("  Fuel gauge OK\r\n");
 1014              		.loc 1 84 0
 1015 00a6 2821     		movs	r1, #40
 1016 00a8 2F48     		ldr	r0, .L62+32
 1017 00aa FFF7FEFF 		bl	LTC2944_Init
 1018              	.LVL131:
 1019 00ae 0028     		cmp	r0, #0
 1020 00b0 03D0     		beq	.L59
  85:CLI.c         ****                     } else {
 1021              		.loc 1 85 0
 1022 00b2 2E48     		ldr	r0, .L62+36
 1023 00b4 FFF7FEFF 		bl	CLI_Print
 1024              	.LVL132:
 1025 00b8 28E0     		b	.L45
 1026              	.L59:
  87:CLI.c         ****                     }
 1027              		.loc 1 87 0
ARM GAS  C:\Users\jimvr\AppData\Local\Temp\ccRHCRpJ.s 			page 25


 1028 00ba 2D48     		ldr	r0, .L62+40
 1029 00bc FFF7FEFF 		bl	CLI_Print
 1030              	.LVL133:
 1031 00c0 24E0     		b	.L45
 1032              	.LVL134:
 1033              	.L52:
  93:CLI.c         ****                     CLI_Print("Charging ENABLED\r\n");
 1034              		.loc 1 93 0
 1035 00c2 0120     		movs	r0, #1
 1036 00c4 FFF7FEFF 		bl	BQ25730_EnableCharging
 1037              	.LVL135:
  94:CLI.c         ****                     break;
 1038              		.loc 1 94 0
 1039 00c8 2A48     		ldr	r0, .L62+44
 1040 00ca FFF7FEFF 		bl	CLI_Print
 1041              	.LVL136:
  95:CLI.c         ****                     
 1042              		.loc 1 95 0
 1043 00ce 1DE0     		b	.L45
 1044              	.LVL137:
 1045              	.L51:
  99:CLI.c         ****                     CLI_Print("Charging DISABLED\r\n");
 1046              		.loc 1 99 0
 1047 00d0 0020     		movs	r0, #0
 1048 00d2 FFF7FEFF 		bl	BQ25730_EnableCharging
 1049              	.LVL138:
 100:CLI.c         ****                     break;
 1050              		.loc 1 100 0
 1051 00d6 2848     		ldr	r0, .L62+48
 1052 00d8 FFF7FEFF 		bl	CLI_Print
 1053              	.LVL139:
 101:CLI.c         ****                     
 1054              		.loc 1 101 0
 1055 00dc 16E0     		b	.L45
 1056              	.LVL140:
 1057              	.L49:
 105:CLI.c         ****                     CLI_Print("\r\n");
 1058              		.loc 1 105 0
 1059 00de FFF7FEFF 		bl	CLI_PrintBatteryStatus
 1060              	.LVL141:
 106:CLI.c         ****                     CLI_PrintFuelGaugeStatus();
 1061              		.loc 1 106 0
 1062 00e2 1B48     		ldr	r0, .L62+8
 1063 00e4 FFF7FEFF 		bl	CLI_Print
 1064              	.LVL142:
 107:CLI.c         ****                     break;
 1065              		.loc 1 107 0
 1066 00e8 FFF7FEFF 		bl	CLI_PrintFuelGaugeStatus
 1067              	.LVL143:
 108:CLI.c         ****                     
 1068              		.loc 1 108 0
 1069 00ec 0EE0     		b	.L45
 1070              	.LVL144:
 1071              	.L55:
 112:CLI.c         ****                     CLI_ReadChargerRegisters();
 1072              		.loc 1 112 0
 1073 00ee 2348     		ldr	r0, .L62+52
ARM GAS  C:\Users\jimvr\AppData\Local\Temp\ccRHCRpJ.s 			page 26


 1074 00f0 FFF7FEFF 		bl	CLI_Print
 1075              	.LVL145:
 113:CLI.c         ****                     break;
 1076              		.loc 1 113 0
 1077 00f4 FFF7FEFF 		bl	CLI_ReadChargerRegisters
 1078              	.LVL146:
 114:CLI.c         ****                     
 1079              		.loc 1 114 0
 1080 00f8 08E0     		b	.L45
 1081              	.LVL147:
 1082              	.L56:
 118:CLI.c         ****                     CLI_I2CScan();
 1083              		.loc 1 118 0
 1084 00fa 2148     		ldr	r0, .L62+56
 1085 00fc FFF7FEFF 		bl	CLI_Print
 1086              	.LVL148:
 119:CLI.c         ****                     break;
 1087              		.loc 1 119 0
 1088 0100 FFF7FEFF 		bl	CLI_I2CScan
 1089              	.LVL149:
 120:CLI.c         ****                     
 1090              		.loc 1 120 0
 1091 0104 02E0     		b	.L45
 1092              	.LVL150:
 1093              	.L46:
 123:CLI.c         ****                     break;
 1094              		.loc 1 123 0
 1095 0106 1F48     		ldr	r0, .L62+60
 1096 0108 FFF7FEFF 		bl	CLI_Print
 1097              	.LVL151:
 1098              	.L45:
 1099              	.LBE5:
 129:CLI.c         ****         memset(cli_buffer, 0, CLI_BUFFER_SIZE);
 1100              		.loc 1 129 0
 1101 010c 0E48     		ldr	r0, .L62
 1102 010e 0023     		movs	r3, #0
 1103 0110 0370     		strb	r3, [r0]
 130:CLI.c         ****         CLI_Print("> ");
 1104              		.loc 1 130 0
 1105 0112 0430     		adds	r0, r0, #4
 1106 0114 4022     		movs	r2, #64
 1107 0116 0021     		movs	r1, #0
 1108 0118 FFF7FEFF 		bl	memset
 1109              	.LVL152:
 131:CLI.c         ****         return;
 1110              		.loc 1 131 0
 1111 011c 1A48     		ldr	r0, .L62+64
 1112 011e FFF7FEFF 		bl	CLI_Print
 1113              	.LVL153:
 132:CLI.c         ****     }
 1114              		.loc 1 132 0
 1115 0122 0EE0     		b	.L38
 1116              	.L44:
 136:CLI.c         ****         if (cli_index < CLI_BUFFER_SIZE - 1) {
 1117              		.loc 1 136 0
 1118 0124 5E2D     		cmp	r5, #94
 1119 0126 0CD8     		bhi	.L38
ARM GAS  C:\Users\jimvr\AppData\Local\Temp\ccRHCRpJ.s 			page 27


 137:CLI.c         ****             cli_buffer[cli_index++] = byte;
 1120              		.loc 1 137 0
 1121 0128 074B     		ldr	r3, .L62
 1122 012a 1B78     		ldrb	r3, [r3]
 1123 012c 3E2B     		cmp	r3, #62
 1124 012e 08D8     		bhi	.L38
 138:CLI.c         ****             cli_buffer[cli_index] = '\0';
 1125              		.loc 1 138 0
 1126 0130 5A1C     		adds	r2, r3, #1
 1127 0132 D2B2     		uxtb	r2, r2
 1128 0134 0449     		ldr	r1, .L62
 1129 0136 0A70     		strb	r2, [r1]
 1130 0138 CB18     		adds	r3, r1, r3
 1131 013a 1C71     		strb	r4, [r3, #4]
 139:CLI.c         ****         }
 1132              		.loc 1 139 0
 1133 013c 8A18     		adds	r2, r1, r2
 1134 013e 0023     		movs	r3, #0
 1135 0140 1371     		strb	r3, [r2, #4]
 1136              	.L38:
 142:CLI.c         **** 
 1137              		.loc 1 142 0
 1138 0142 03B0     		add	sp, sp, #12
 1139              		@ sp needed
 1140 0144 30BD     		pop	{r4, r5, pc}
 1141              	.L63:
 1142 0146 C046     		.align	2
 1143              	.L62:
 1144 0148 00000000 		.word	.LANCHOR0
 1145 014c A0040000 		.word	.LC93
 1146 0150 74040000 		.word	.LC88
 1147 0154 00000000 		.word	.L48
 1148 0158 A4040000 		.word	.LC97
 1149 015c C0040000 		.word	.LC99
 1150 0160 D0040000 		.word	.LC101
 1151 0164 E4040000 		.word	.LC103
 1152 0168 AC0D0000 		.word	3500
 1153 016c 04050000 		.word	.LC105
 1154 0170 18050000 		.word	.LC107
 1155 0174 30050000 		.word	.LC109
 1156 0178 44050000 		.word	.LC111
 1157 017c 58050000 		.word	.LC113
 1158 0180 78050000 		.word	.LC115
 1159 0184 90050000 		.word	.LC117
 1160 0188 B8050000 		.word	.LC119
 1161              		.cfi_endproc
 1162              	.LFE35:
 1163              		.size	CLI_ProcessByte, .-CLI_ProcessByte
 1164              		.section	.rodata.str1.4,"aMS",%progbits,1
 1165              		.align	2
 1166              	.LC1:
 1167 0000 0D0A2A2A 		.ascii	"\015\012*** Revelite Battery System CLI ***\015\012"
 1167      2A205265 
 1167      76656C69 
 1167      74652042 
 1167      61747465 
 1168 0027 00       		.ascii	"\000"
ARM GAS  C:\Users\jimvr\AppData\Local\Temp\ccRHCRpJ.s 			page 28


 1169              	.LC3:
 1170 0028 54797065 		.ascii	"Type 'h' for help\015\012> \000"
 1170      20276827 
 1170      20666F72 
 1170      2068656C 
 1170      700D0A3E 
 1171 003e 0000     		.space	2
 1172              	.LC6:
 1173 0040 436F6D6D 		.ascii	"Commands:\015\012\000"
 1173      616E6473 
 1173      3A0D0A00 
 1174              	.LC8:
 1175 004c 20206820 		.ascii	"  h - Help (this menu)\015\012\000"
 1175      2D204865 
 1175      6C702028 
 1175      74686973 
 1175      206D656E 
 1176 0065 000000   		.space	3
 1177              	.LC10:
 1178 0068 20206920 		.ascii	"  i - Initialize charger & fuel gauge\015\012\000"
 1178      2D20496E 
 1178      69746961 
 1178      6C697A65 
 1178      20636861 
 1179              	.LC12:
 1180 0090 20206220 		.ascii	"  b - Battery charger status\015\012\000"
 1180      2D204261 
 1180      74746572 
 1180      79206368 
 1180      61726765 
 1181 00af 00       		.space	1
 1182              	.LC14:
 1183 00b0 20206620 		.ascii	"  f - Fuel gauge status\015\012\000"
 1183      2D204675 
 1183      656C2067 
 1183      61756765 
 1183      20737461 
 1184 00ca 0000     		.space	2
 1185              	.LC16:
 1186 00cc 20206120 		.ascii	"  a - All status (charger + fuel gauge)\015\012\000"
 1186      2D20416C 
 1186      6C207374 
 1186      61747573 
 1186      20286368 
 1187 00f6 0000     		.space	2
 1188              	.LC18:
 1189 00f8 20206520 		.ascii	"  e - Enable charging\015\012\000"
 1189      2D20456E 
 1189      61626C65 
 1189      20636861 
 1189      7267696E 
 1190              	.LC20:
 1191 0110 20206420 		.ascii	"  d - Disable charging\015\012\000"
 1191      2D204469 
 1191      7361626C 
 1191      65206368 
 1191      61726769 
ARM GAS  C:\Users\jimvr\AppData\Local\Temp\ccRHCRpJ.s 			page 29


 1192 0129 000000   		.space	3
 1193              	.LC22:
 1194 012c 20207220 		.ascii	"  r - Read charger registers (debug)\015\012\000"
 1194      2D205265 
 1194      61642063 
 1194      68617267 
 1194      65722072 
 1195 0153 00       		.space	1
 1196              	.LC24:
 1197 0154 20207320 		.ascii	"  s - Scan I2C bus (debug)\015\012\000"
 1197      2D205363 
 1197      616E2049 
 1197      32432062 
 1197      75732028 
 1198 0171 000000   		.space	3
 1199              	.LC26:
 1200 0174 5945530D 		.ascii	"YES\015\012\000"
 1200      0A00
 1201 017a 0000     		.space	2
 1202              	.LC28:
 1203 017c 4E4F0D0A 		.ascii	"NO\015\012\000"
 1203      00
 1204 0181 000000   		.space	3
 1205              	.LC30:
 1206 0184 4E4F4E45 		.ascii	"NONE\015\012\000"
 1206      0D0A00
 1207 018b 00       		.space	1
 1208              	.LC32:
 1209 018c 3D3D3D20 		.ascii	"=== Battery Charger (BQ25730) ===\015\012\000"
 1209      42617474 
 1209      65727920 
 1209      43686172 
 1209      67657220 
 1210              	.LC34:
 1211 01b0 20205374 		.ascii	"  Status Reg: 0x%04X\015\012\000"
 1211      61747573 
 1211      20526567 
 1211      3A203078 
 1211      25303458 
 1212 01c7 00       		.space	1
 1213              	.LC36:
 1214 01c8 20204261 		.ascii	"  Battery:    %u mV, %d mA\015\012\000"
 1214      74746572 
 1214      793A2020 
 1214      20202575 
 1214      206D562C 
 1215 01e5 000000   		.space	3
 1216              	.LC38:
 1217 01e8 20205642 		.ascii	"  VBUS:       %u mV\015\012\000"
 1217      55533A20 
 1217      20202020 
 1217      20202575 
 1217      206D560D 
 1218 01fe 0000     		.space	2
 1219              	.LC40:
 1220 0200 20205379 		.ascii	"  System:     %u mV\015\012\000"
 1220      7374656D 
ARM GAS  C:\Users\jimvr\AppData\Local\Temp\ccRHCRpJ.s 			page 30


 1220      3A202020 
 1220      20202575 
 1220      206D560D 
 1221 0216 0000     		.space	2
 1222              	.LC42:
 1223 0218 20204143 		.ascii	"  AC Present: \000"
 1223      20507265 
 1223      73656E74 
 1223      3A2000
 1224 0227 00       		.space	1
 1225              	.LC44:
 1226 0228 20204368 		.ascii	"  Charging:   \000"
 1226      61726769 
 1226      6E673A20 
 1226      202000
 1227 0237 00       		.space	1
 1228              	.LC46:
 1229 0238 20204661 		.ascii	"  Faults:     \000"
 1229      756C7473 
 1229      3A202020 
 1229      202000
 1230 0247 00       		.space	1
 1231              	.LC50:
 1232 0248 3D3D3D20 		.ascii	"=== Fuel Gauge (LTC2944) ===\015\012\000"
 1232      4675656C 
 1232      20476175 
 1232      67652028 
 1232      4C544332 
 1233 0267 00       		.space	1
 1234              	.LC52:
 1235 0268 20205374 		.ascii	"  Status Reg: 0x%02X\015\012\000"
 1235      61747573 
 1235      20526567 
 1235      3A203078 
 1235      25303258 
 1236 027f 00       		.space	1
 1237              	.LC54:
 1238 0280 2020566F 		.ascii	"  Voltage:    %u mV (raw:0x%04X)\015\012\000"
 1238      6C746167 
 1238      653A2020 
 1238      20202575 
 1238      206D5620 
 1239 02a3 00       		.space	1
 1240              	.LC56:
 1241 02a4 20204375 		.ascii	"  Current:    %d mA (raw:0x%04X)\015\012\000"
 1241      7272656E 
 1241      743A2020 
 1241      20202564 
 1241      206D4120 
 1242 02c7 00       		.space	1
 1243              	.LC58:
 1244 02c8 20205465 		.ascii	"  Temp:       %d C (raw:0x%04X)\015\012\000"
 1244      6D703A20 
 1244      20202020 
 1244      20202564 
 1244      20432028 
 1245 02ea 0000     		.space	2
ARM GAS  C:\Users\jimvr\AppData\Local\Temp\ccRHCRpJ.s 			page 31


 1246              	.LC60:
 1247 02ec 20204163 		.ascii	"  Acc Charge: %u mAh (raw:0x%04X)\015\012\000"
 1247      63204368 
 1247      61726765 
 1247      3A202575 
 1247      206D4168 
 1248              	.LC62:
 1249 0310 2020534F 		.ascii	"  SOC:        %u %%\015\012\000"
 1249      433A2020 
 1249      20202020 
 1249      20202575 
 1249      2025250D 
 1250 0326 0000     		.space	2
 1251              	.LC64:
 1252 0328 2020416C 		.ascii	"  Alerts:     \000"
 1252      65727473 
 1252      3A202020 
 1252      202000
 1253 0337 00       		.space	1
 1254              	.LC66:
 1255 0338 20204D66 		.ascii	"  Mfr ID:     0x%04X (expect 0x0040)\015\012\000"
 1255      72204944 
 1255      3A202020 
 1255      20203078 
 1255      25303458 
 1256 035f 00       		.space	1
 1257              	.LC68:
 1258 0360 20204465 		.ascii	"  Dev ID:     0x%04X (expect 0x0773)\015\012\000"
 1258      76204944 
 1258      3A202020 
 1258      20203078 
 1258      25303458 
 1259 0387 00       		.space	1
 1260              	.LC70:
 1261 0388 20204368 		.ascii	"  ChgOpt0:    0x%04X\015\012\000"
 1261      674F7074 
 1261      303A2020 
 1261      20203078 
 1261      25303458 
 1262 039f 00       		.space	1
 1263              	.LC72:
 1264 03a0 20204368 		.ascii	"  ChgCurr:    0x%04X (%u mA)\015\012\000"
 1264      67437572 
 1264      723A2020 
 1264      20203078 
 1264      25303458 
 1265 03bf 00       		.space	1
 1266              	.LC74:
 1267 03c0 20204368 		.ascii	"  ChgVolt:    0x%04X (%u mV)\015\012\000"
 1267      67566F6C 
 1267      743A2020 
 1267      20203078 
 1267      25303458 
 1268 03df 00       		.space	1
 1269              	.LC76:
 1270 03e0 20205374 		.ascii	"  Status:     0x%04X\015\012\000"
 1270      61747573 
ARM GAS  C:\Users\jimvr\AppData\Local\Temp\ccRHCRpJ.s 			page 32


 1270      3A202020 
 1270      20203078 
 1270      25303458 
 1271 03f7 00       		.space	1
 1272              	.LC78:
 1273 03f8 20205363 		.ascii	"  Scanning 0x00-0x7F...\015\012\000"
 1273      616E6E69 
 1273      6E672030 
 1273      7830302D 
 1273      30783746 
 1274 0412 0000     		.space	2
 1275              	.LC80:
 1276 0414 20202020 		.ascii	"    Found device at 0x%02X\000"
 1276      466F756E 
 1276      64206465 
 1276      76696365 
 1276      20617420 
 1277 042f 00       		.space	1
 1278              	.LC82:
 1279 0430 20284251 		.ascii	" (BQ25730 Charger)\015\012\000"
 1279      32353733 
 1279      30204368 
 1279      61726765 
 1279      72290D0A 
 1280 0445 000000   		.space	3
 1281              	.LC84:
 1282 0448 20284C54 		.ascii	" (LTC2944 Fuel Gauge)\015\012\000"
 1282      43323934 
 1282      34204675 
 1282      656C2047 
 1282      61756765 
 1283              	.LC86:
 1284 0460 20285043 		.ascii	" (PCLA9538 Latch)\015\012\000"
 1284      4C413935 
 1284      3338204C 
 1284      61746368 
 1284      290D0A00 
 1285              	.LC88:
 1286 0474 0D0A00   		.ascii	"\015\012\000"
 1287 0477 00       		.space	1
 1288              	.LC90:
 1289 0478 20205363 		.ascii	"  Scan complete. Found %u device(s)\015\012\000"
 1289      616E2063 
 1289      6F6D706C 
 1289      6574652E 
 1289      20466F75 
 1290 049e 0000     		.space	2
 1291              	.LC93:
 1292 04a0 08200800 		.ascii	"\010 \010\000"
 1293              	.LC97:
 1294 04a4 496E6974 		.ascii	"Initializing charger...\015\012\000"
 1294      69616C69 
 1294      7A696E67 
 1294      20636861 
 1294      72676572 
 1295 04be 0000     		.space	2
 1296              	.LC99:
ARM GAS  C:\Users\jimvr\AppData\Local\Temp\ccRHCRpJ.s 			page 33


 1297 04c0 20204368 		.ascii	"  Charger OK\015\012\000"
 1297      61726765 
 1297      72204F4B 
 1297      0D0A00
 1298 04cf 00       		.space	1
 1299              	.LC101:
 1300 04d0 20204368 		.ascii	"  Charger FAILED\015\012\000"
 1300      61726765 
 1300      72204641 
 1300      494C4544 
 1300      0D0A00
 1301 04e3 00       		.space	1
 1302              	.LC103:
 1303 04e4 496E6974 		.ascii	"Initializing fuel gauge...\015\012\000"
 1303      69616C69 
 1303      7A696E67 
 1303      20667565 
 1303      6C206761 
 1304 0501 000000   		.space	3
 1305              	.LC105:
 1306 0504 20204675 		.ascii	"  Fuel gauge OK\015\012\000"
 1306      656C2067 
 1306      61756765 
 1306      204F4B0D 
 1306      0A00
 1307 0516 0000     		.space	2
 1308              	.LC107:
 1309 0518 20204675 		.ascii	"  Fuel gauge FAILED\015\012\000"
 1309      656C2067 
 1309      61756765 
 1309      20464149 
 1309      4C45440D 
 1310 052e 0000     		.space	2
 1311              	.LC109:
 1312 0530 43686172 		.ascii	"Charging ENABLED\015\012\000"
 1312      67696E67 
 1312      20454E41 
 1312      424C4544 
 1312      0D0A00
 1313 0543 00       		.space	1
 1314              	.LC111:
 1315 0544 43686172 		.ascii	"Charging DISABLED\015\012\000"
 1315      67696E67 
 1315      20444953 
 1315      41424C45 
 1315      440D0A00 
 1316              	.LC113:
 1317 0558 52656164 		.ascii	"Reading BQ25730 registers...\015\012\000"
 1317      696E6720 
 1317      42513235 
 1317      37333020 
 1317      72656769 
 1318 0577 00       		.space	1
 1319              	.LC115:
 1320 0578 5363616E 		.ascii	"Scanning I2C bus...\015\012\000"
 1320      6E696E67 
 1320      20493243 
ARM GAS  C:\Users\jimvr\AppData\Local\Temp\ccRHCRpJ.s 			page 34


 1320      20627573 
 1320      2E2E2E0D 
 1321 058e 0000     		.space	2
 1322              	.LC117:
 1323 0590 556E6B6E 		.ascii	"Unknown command. Type 'h' for help\015\012\000"
 1323      6F776E20 
 1323      636F6D6D 
 1323      616E642E 
 1323      20547970 
 1324 05b5 000000   		.space	3
 1325              	.LC119:
 1326 05b8 3E2000   		.ascii	"> \000"
 1327              		.bss
 1328              		.align	2
 1329              		.set	.LANCHOR0,. + 0
 1330              		.type	cli_index, %object
 1331              		.size	cli_index, 1
 1332              	cli_index:
 1333 0000 00       		.space	1
 1334 0001 000000   		.space	3
 1335              		.type	cli_buffer, %object
 1336              		.size	cli_buffer, 64
 1337              	cli_buffer:
 1338 0004 00000000 		.space	64
 1338      00000000 
 1338      00000000 
 1338      00000000 
 1338      00000000 
 1339              		.text
 1340              	.Letext0:
 1341              		.file 2 "c:\\program files (x86)\\cypress\\psoc creator\\4.4\\psoc creator\\import\\gnu\\arm\\5.4.
 1342              		.file 3 "c:\\program files (x86)\\cypress\\psoc creator\\4.4\\psoc creator\\import\\gnu\\arm\\5.4.
 1343              		.file 4 "Generated_Source\\PSoC4/cytypes.h"
 1344              		.file 5 "battery.h"
 1345              		.file 6 "LTC2944.h"
 1346              		.file 7 "c:\\program files (x86)\\cypress\\psoc creator\\4.4\\psoc creator\\import\\gnu\\arm\\5.4.
 1347              		.file 8 "Generated_Source\\PSoC4/UART_SPI_UART.h"
 1348              		.file 9 "c:\\program files (x86)\\cypress\\psoc creator\\4.4\\psoc creator\\import\\gnu\\arm\\5.4.
 1349              		.file 10 "Generated_Source\\PSoC4/I2CM_I2C.h"
 1350              		.file 11 "Generated_Source\\PSoC4/CyLib.h"