ARM GAS  C:\Users\jimvr\AppData\Local\Temp\cc0ypu7g.s 			page 1


   1              		.syntax unified
   2              		.cpu cortex-m0
   3              		.fpu softvfp
   4              		.eabi_attribute 20, 1
   5              		.eabi_attribute 21, 1
   6              		.eabi_attribute 23, 3
   7              		.eabi_attribute 24, 1
   8              		.eabi_attribute 25, 1
   9              		.eabi_attribute 26, 1
  10              		.eabi_attribute 30, 1
  11              		.eabi_attribute 34, 0
  12              		.eabi_attribute 18, 4
  13              		.thumb
  14              		.syntax unified
  15              		.file	"isr.c"
  16              		.text
  17              	.Ltext0:
  18              		.cfi_sections	.debug_frame
  19              		.section	.text.fnTIMER_ISR,"ax",%progbits
  20              		.align	2
  21              		.global	fnTIMER_ISR
  22              		.code	16
  23              		.thumb_func
  24              		.type	fnTIMER_ISR, %function
  25              	fnTIMER_ISR:
  26              	.LFB33:
  27              		.file 1 "isr.c"
   1:isr.c         **** // File: isr.c
   2:isr.c         **** // Project: Revelite battery
   3:isr.c         **** //
   4:isr.c         **** //
   5:isr.c         **** #include "project.h"
   6:isr.c         **** #include "main.h"
   7:isr.c         **** #include "buttons.h"
   8:isr.c         **** #include <math.h>
   9:isr.c         **** #include <CyFlash.h>
  10:isr.c         **** #include <stdio.h>
  11:isr.c         **** 
  12:isr.c         **** // EEPROM FLASH BLOCKs
  13:isr.c         **** #define INFO_ROW       	(CY_FLASH_NUMBER_ROWS - 5u)
  14:isr.c         **** #define INFO_ADDR      	(INFO_ROW * CY_FLASH_SIZEOF_ROW)
  15:isr.c         **** //
  16:isr.c         **** extern structInfo Info;
  17:isr.c         **** //
  18:isr.c         **** //    
  19:isr.c         **** #define BLINKTIME 500
  20:isr.c         **** uint16 uiBlinkTimer = BLINKTIME;
  21:isr.c         **** volatile uint16 uiWriteEEPROMTimer;
  22:isr.c         **** volatile uint32 ulUARTTempOutputTimer;
  23:isr.c         **** volatile uint16 uiWDResetTimer = WDRESETTIME;
  24:isr.c         **** volatile uint16 uiButtonTimer[NUMBUTTONS];
  25:isr.c         **** //
  26:isr.c         **** // timer ISR at 250uSec
  27:isr.c         **** CY_ISR(fnTIMER_ISR) {
  28              		.loc 1 27 0
  29              		.cfi_startproc
  30              		@ args = 0, pretend = 0, frame = 0
ARM GAS  C:\Users\jimvr\AppData\Local\Temp\cc0ypu7g.s 			page 2


  31              		@ frame_needed = 0, uses_anonymous_args = 0
  32              		@ link register save eliminated.
  28:isr.c         ****             
  29:isr.c         ****     if(uiBlinkTimer)
  33              		.loc 1 29 0
  34 0000 1A4B     		ldr	r3, .L9
  35 0002 1B88     		ldrh	r3, [r3]
  36 0004 002B     		cmp	r3, #0
  37 0006 02D0     		beq	.L2
  30:isr.c         ****         uiBlinkTimer--;
  38              		.loc 1 30 0
  39 0008 013B     		subs	r3, r3, #1
  40 000a 184A     		ldr	r2, .L9
  41 000c 1380     		strh	r3, [r2]
  42              	.L2:
  31:isr.c         ****     
  32:isr.c         ****     if(uiWriteEEPROMTimer)
  43              		.loc 1 32 0
  44 000e 184B     		ldr	r3, .L9+4
  45 0010 1B88     		ldrh	r3, [r3]
  46 0012 9BB2     		uxth	r3, r3
  47 0014 002B     		cmp	r3, #0
  48 0016 04D0     		beq	.L3
  33:isr.c         ****         uiWriteEEPROMTimer--;
  49              		.loc 1 33 0
  50 0018 154A     		ldr	r2, .L9+4
  51 001a 1388     		ldrh	r3, [r2]
  52 001c 013B     		subs	r3, r3, #1
  53 001e 9BB2     		uxth	r3, r3
  54 0020 1380     		strh	r3, [r2]
  55              	.L3:
  34:isr.c         ****         
  35:isr.c         ****     if(ulUARTTempOutputTimer)
  56              		.loc 1 35 0
  57 0022 144B     		ldr	r3, .L9+8
  58 0024 1B68     		ldr	r3, [r3]
  59 0026 002B     		cmp	r3, #0
  60 0028 03D0     		beq	.L4
  36:isr.c         ****         ulUARTTempOutputTimer--;
  61              		.loc 1 36 0
  62 002a 124A     		ldr	r2, .L9+8
  63 002c 1368     		ldr	r3, [r2]
  64 002e 013B     		subs	r3, r3, #1
  65 0030 1360     		str	r3, [r2]
  66              	.L4:
  27:isr.c         ****             
  67              		.loc 1 27 0 discriminator 1
  68 0032 0023     		movs	r3, #0
  69 0034 0CE0     		b	.L5
  70              	.LVL0:
  71              	.L7:
  72              	.LBB2:
  37:isr.c         ****     
  38:isr.c         ****     for(uint8 n=0;n<NUMBUTTONS;n++) { // button timers
  39:isr.c         ****         if(uiButtonTimer[n])
  73              		.loc 1 39 0
  74 0036 5A00     		lsls	r2, r3, #1
ARM GAS  C:\Users\jimvr\AppData\Local\Temp\cc0ypu7g.s 			page 3


  75 0038 0F49     		ldr	r1, .L9+12
  76 003a 525A     		ldrh	r2, [r2, r1]
  77 003c 92B2     		uxth	r2, r2
  78 003e 002A     		cmp	r2, #0
  79 0040 04D0     		beq	.L6
  40:isr.c         ****             uiButtonTimer[n]--;
  80              		.loc 1 40 0
  81 0042 5800     		lsls	r0, r3, #1
  82 0044 425A     		ldrh	r2, [r0, r1]
  83 0046 013A     		subs	r2, r2, #1
  84 0048 92B2     		uxth	r2, r2
  85 004a 4252     		strh	r2, [r0, r1]
  86              	.L6:
  38:isr.c         ****         if(uiButtonTimer[n])
  87              		.loc 1 38 0 discriminator 2
  88 004c 0133     		adds	r3, r3, #1
  89              	.LVL1:
  90 004e DBB2     		uxtb	r3, r3
  91              	.LVL2:
  92              	.L5:
  38:isr.c         ****         if(uiButtonTimer[n])
  93              		.loc 1 38 0 is_stmt 0 discriminator 1
  94 0050 022B     		cmp	r3, #2
  95 0052 F0D9     		bls	.L7
  96              	.LBE2:
  41:isr.c         ****     }
  42:isr.c         ****         
  43:isr.c         ****     if(uiWDResetTimer) // reset here if I2C goes down
  97              		.loc 1 43 0 is_stmt 1
  98 0054 054B     		ldr	r3, .L9
  99              	.LVL3:
 100 0056 5B88     		ldrh	r3, [r3, #2]
 101 0058 9BB2     		uxth	r3, r3
 102 005a 002B     		cmp	r3, #0
 103 005c 04D0     		beq	.L1
  44:isr.c         ****         uiWDResetTimer--;
 104              		.loc 1 44 0
 105 005e 034A     		ldr	r2, .L9
 106 0060 5388     		ldrh	r3, [r2, #2]
 107 0062 013B     		subs	r3, r3, #1
 108 0064 9BB2     		uxth	r3, r3
 109 0066 5380     		strh	r3, [r2, #2]
 110              	.L1:
  45:isr.c         ****     else {
  46:isr.c         **** #ifdef WDRESETON               
  47:isr.c         ****         CySoftwareReset();   
  48:isr.c         **** #endif 
  49:isr.c         ****     }
  50:isr.c         **** }
 111              		.loc 1 50 0
 112              		@ sp needed
 113 0068 7047     		bx	lr
 114              	.L10:
 115 006a C046     		.align	2
 116              	.L9:
 117 006c 00000000 		.word	.LANCHOR0
 118 0070 00000000 		.word	uiWriteEEPROMTimer
ARM GAS  C:\Users\jimvr\AppData\Local\Temp\cc0ypu7g.s 			page 4


 119 0074 00000000 		.word	ulUARTTempOutputTimer
 120 0078 00000000 		.word	uiButtonTimer
 121              		.cfi_endproc
 122              	.LFE33:
 123              		.size	fnTIMER_ISR, .-fnTIMER_ISR
 124              		.global	__aeabi_fdiv
 125              		.global	__aeabi_ui2f
 126              		.global	__aeabi_fsub
 127              		.global	__aeabi_fadd
 128              		.global	__aeabi_fcmpun
 129              		.global	__aeabi_f2uiz
 130              		.section	.text.DIM_ISR_Handler,"ax",%progbits
 131              		.align	2
 132              		.global	DIM_ISR_Handler
 133              		.code	16
 134              		.thumb_func
 135              		.type	DIM_ISR_Handler, %function
 136              	DIM_ISR_Handler:
 137              	.LFB34:
  51:isr.c         **** //
  52:isr.c         **** volatile uint16 uiPWMTarget1 = PWMOFF;
  53:isr.c         **** volatile uint16 uiPWMTarget2 = PWMOFF;
  54:isr.c         **** extern float flSmoothFilter;
  55:isr.c         **** //
  56:isr.c         **** CY_ISR(DIM_ISR_Handler) {
 138              		.loc 1 56 0
 139              		.cfi_startproc
 140              		@ args = 0, pretend = 0, frame = 0
 141              		@ frame_needed = 0, uses_anonymous_args = 0
 142 0000 F8B5     		push	{r3, r4, r5, r6, r7, lr}
 143              		.cfi_def_cfa_offset 24
 144              		.cfi_offset 3, -24
 145              		.cfi_offset 4, -20
 146              		.cfi_offset 5, -16
 147              		.cfi_offset 6, -12
 148              		.cfi_offset 7, -8
 149              		.cfi_offset 14, -4
  57:isr.c         ****     static uint16 uiPWMval1 = 0;
  58:isr.c         ****     static float flPWMval1 = 0;
  59:isr.c         ****     static uint16 uiPWMval2 = 0;
  60:isr.c         ****     static float flPWMval2 = 0;
  61:isr.c         ****     
  62:isr.c         **** //    if(flPWMval1 != 0)
  63:isr.c         ****         flPWMval1 = ((flPWMval1 / flSmoothFilter) + ((float)uiPWMTarget1 - ((float)uiPWMTarget1 / f
 150              		.loc 1 63 0
 151 0002 384B     		ldr	r3, .L20
 152 0004 1D68     		ldr	r5, [r3]
 153 0006 384C     		ldr	r4, .L20+4
 154 0008 291C     		adds	r1, r5, #0
 155 000a 2068     		ldr	r0, [r4]
 156 000c FFF7FEFF 		bl	__aeabi_fdiv
 157              	.LVL4:
 158 0010 061C     		adds	r6, r0, #0
 159 0012 A088     		ldrh	r0, [r4, #4]
 160 0014 80B2     		uxth	r0, r0
 161 0016 FFF7FEFF 		bl	__aeabi_ui2f
 162              	.LVL5:
ARM GAS  C:\Users\jimvr\AppData\Local\Temp\cc0ypu7g.s 			page 5


 163 001a 071C     		adds	r7, r0, #0
 164 001c A088     		ldrh	r0, [r4, #4]
 165 001e 80B2     		uxth	r0, r0
 166 0020 FFF7FEFF 		bl	__aeabi_ui2f
 167              	.LVL6:
 168 0024 291C     		adds	r1, r5, #0
 169 0026 FFF7FEFF 		bl	__aeabi_fdiv
 170              	.LVL7:
 171 002a 011C     		adds	r1, r0, #0
 172 002c 381C     		adds	r0, r7, #0
 173 002e FFF7FEFF 		bl	__aeabi_fsub
 174              	.LVL8:
 175 0032 011C     		adds	r1, r0, #0
 176 0034 301C     		adds	r0, r6, #0
 177 0036 FFF7FEFF 		bl	__aeabi_fadd
 178              	.LVL9:
 179 003a 2060     		str	r0, [r4]
  64:isr.c         ****     
  65:isr.c         **** 	if(isnan(flPWMval1))
 180              		.loc 1 65 0
 181 003c 011C     		adds	r1, r0, #0
 182 003e FFF7FEFF 		bl	__aeabi_fcmpun
 183              	.LVL10:
 184 0042 0028     		cmp	r0, #0
 185 0044 03D0     		beq	.L12
  66:isr.c         **** 	    flPWMval1 = uiPWMval1;
 186              		.loc 1 66 0
 187 0046 E088     		ldrh	r0, [r4, #6]
 188 0048 FFF7FEFF 		bl	__aeabi_ui2f
 189              	.LVL11:
 190 004c 2060     		str	r0, [r4]
 191              	.L12:
  67:isr.c         ****     
  68:isr.c         ****     uiPWMval1 = (uint16)flPWMval1;
 192              		.loc 1 68 0
 193 004e 264C     		ldr	r4, .L20+4
 194 0050 2068     		ldr	r0, [r4]
 195 0052 FFF7FEFF 		bl	__aeabi_f2uiz
 196              	.LVL12:
 197 0056 80B2     		uxth	r0, r0
 198 0058 E080     		strh	r0, [r4, #6]
  69:isr.c         ****     
  70:isr.c         ****     if(uiPWMval1 >= PWMPERIOD)
 199              		.loc 1 70 0
 200 005a 244B     		ldr	r3, .L20+8
 201 005c 9842     		cmp	r0, r3
 202 005e 02D1     		bne	.L14
  71:isr.c         ****         uiPWMval1 = PWMPERIOD-1;
 203              		.loc 1 71 0
 204 0060 0222     		movs	r2, #2
 205 0062 5242     		rsbs	r2, r2, #0
 206 0064 E280     		strh	r2, [r4, #6]
 207              	.L14:
  72:isr.c         **** 
  73:isr.c         **** 	PWM_1_WriteCompareBuf((uint16)(float)uiPWMval1);  // channel 1 and master and current
 208              		.loc 1 73 0
 209 0066 204C     		ldr	r4, .L20+4
ARM GAS  C:\Users\jimvr\AppData\Local\Temp\cc0ypu7g.s 			page 6


 210 0068 E088     		ldrh	r0, [r4, #6]
 211 006a FFF7FEFF 		bl	PWM_1_WriteCompareBuf
 212              	.LVL13:
  74:isr.c         **** 
  75:isr.c         ****     
  76:isr.c         **** //    if(flPWMval2 != 0)
  77:isr.c         ****         flPWMval2 = ((flPWMval2 / flSmoothFilter) + ((float)uiPWMTarget2 - ((float)uiPWMTarget2 / f
 213              		.loc 1 77 0
 214 006e 1D4B     		ldr	r3, .L20
 215 0070 1D68     		ldr	r5, [r3]
 216 0072 291C     		adds	r1, r5, #0
 217 0074 A068     		ldr	r0, [r4, #8]
 218 0076 FFF7FEFF 		bl	__aeabi_fdiv
 219              	.LVL14:
 220 007a 061C     		adds	r6, r0, #0
 221 007c A089     		ldrh	r0, [r4, #12]
 222 007e 80B2     		uxth	r0, r0
 223 0080 FFF7FEFF 		bl	__aeabi_ui2f
 224              	.LVL15:
 225 0084 071C     		adds	r7, r0, #0
 226 0086 A089     		ldrh	r0, [r4, #12]
 227 0088 80B2     		uxth	r0, r0
 228 008a FFF7FEFF 		bl	__aeabi_ui2f
 229              	.LVL16:
 230 008e 291C     		adds	r1, r5, #0
 231 0090 FFF7FEFF 		bl	__aeabi_fdiv
 232              	.LVL17:
 233 0094 011C     		adds	r1, r0, #0
 234 0096 381C     		adds	r0, r7, #0
 235 0098 FFF7FEFF 		bl	__aeabi_fsub
 236              	.LVL18:
 237 009c 011C     		adds	r1, r0, #0
 238 009e 301C     		adds	r0, r6, #0
 239 00a0 FFF7FEFF 		bl	__aeabi_fadd
 240              	.LVL19:
 241 00a4 A060     		str	r0, [r4, #8]
  78:isr.c         ****     
  79:isr.c         **** 	if(isnan(flPWMval2))
 242              		.loc 1 79 0
 243 00a6 011C     		adds	r1, r0, #0
 244 00a8 FFF7FEFF 		bl	__aeabi_fcmpun
 245              	.LVL20:
 246 00ac 0028     		cmp	r0, #0
 247 00ae 04D0     		beq	.L15
  80:isr.c         **** 	    flPWMval2 = uiPWMval2;
 248              		.loc 1 80 0
 249 00b0 0D4C     		ldr	r4, .L20+4
 250 00b2 E089     		ldrh	r0, [r4, #14]
 251 00b4 FFF7FEFF 		bl	__aeabi_ui2f
 252              	.LVL21:
 253 00b8 A060     		str	r0, [r4, #8]
 254              	.L15:
  81:isr.c         ****     
  82:isr.c         ****     uiPWMval2 = (uint16)flPWMval2;
 255              		.loc 1 82 0
 256 00ba 0B4C     		ldr	r4, .L20+4
 257 00bc A068     		ldr	r0, [r4, #8]
ARM GAS  C:\Users\jimvr\AppData\Local\Temp\cc0ypu7g.s 			page 7


 258 00be FFF7FEFF 		bl	__aeabi_f2uiz
 259              	.LVL22:
 260 00c2 80B2     		uxth	r0, r0
 261 00c4 E081     		strh	r0, [r4, #14]
  83:isr.c         ****     
  84:isr.c         ****     if(uiPWMval2 >= PWMPERIOD)
 262              		.loc 1 84 0
 263 00c6 094B     		ldr	r3, .L20+8
 264 00c8 9842     		cmp	r0, r3
 265 00ca 02D1     		bne	.L17
  85:isr.c         ****         uiPWMval2 = PWMPERIOD-1;
 266              		.loc 1 85 0
 267 00cc 0222     		movs	r2, #2
 268 00ce 5242     		rsbs	r2, r2, #0
 269 00d0 E281     		strh	r2, [r4, #14]
 270              	.L17:
  86:isr.c         **** 
  87:isr.c         ****     PWM_2_WriteCompareBuf((uint16)(float)uiPWMval2); // channel 2 and master and current
 271              		.loc 1 87 0
 272 00d2 054B     		ldr	r3, .L20+4
 273 00d4 D889     		ldrh	r0, [r3, #14]
 274 00d6 FFF7FEFF 		bl	PWM_2_WriteCompareBuf
 275              	.LVL23:
  88:isr.c         **** 
  89:isr.c         **** 	// Clear the interrupt flag so that the interrupt does not keep retriggering until the PWM is read
  90:isr.c         ****     PWM_1_ClearInterrupt(PWM_1_INTR_MASK_TC);
 276              		.loc 1 90 0
 277 00da 0120     		movs	r0, #1
 278 00dc FFF7FEFF 		bl	PWM_1_ClearInterrupt
 279              	.LVL24:
  91:isr.c         **** }
 280              		.loc 1 91 0
 281              		@ sp needed
 282 00e0 F8BD     		pop	{r3, r4, r5, r6, r7, pc}
 283              	.L21:
 284 00e2 C046     		.align	2
 285              	.L20:
 286 00e4 00000000 		.word	flSmoothFilter
 287 00e8 00000000 		.word	.LANCHOR1
 288 00ec FFFF0000 		.word	65535
 289              		.cfi_endproc
 290              	.LFE34:
 291              		.size	DIM_ISR_Handler, .-DIM_ISR_Handler
 292              		.section	.text.ADC_ISR_LOC,"ax",%progbits
 293              		.align	2
 294              		.global	ADC_ISR_LOC
 295              		.code	16
 296              		.thumb_func
 297              		.type	ADC_ISR_LOC, %function
 298              	ADC_ISR_LOC:
 299              	.LFB35:
  92:isr.c         **** 
  93:isr.c         **** 
  94:isr.c         **** // used by the ADC   
  95:isr.c         **** extern volatile uint16 result[ADC_TOTAL_CHANNELS_NUM];
  96:isr.c         **** extern volatile bool bDataReady;
  97:isr.c         **** CY_ISR(ADC_ISR_LOC) {
ARM GAS  C:\Users\jimvr\AppData\Local\Temp\cc0ypu7g.s 			page 8


 300              		.loc 1 97 0
 301              		.cfi_startproc
 302              		@ args = 0, pretend = 0, frame = 0
 303              		@ frame_needed = 0, uses_anonymous_args = 0
 304 0000 70B5     		push	{r4, r5, r6, lr}
 305              		.cfi_def_cfa_offset 16
 306              		.cfi_offset 4, -16
 307              		.cfi_offset 5, -12
 308              		.cfi_offset 6, -8
 309              		.cfi_offset 14, -4
  98:isr.c         ****     uint32 range_status;
  99:isr.c         **** 
 100:isr.c         ****     /* Check for End of Scan interrupt */
 101:isr.c         ****     if(ADC_SAR_INTR_MASKED_REG & ADC_EOS_MASK) {
 310              		.loc 1 101 0
 311 0002 154B     		ldr	r3, .L24
 312 0004 1B68     		ldr	r3, [r3]
 313 0006 DB07     		lsls	r3, r3, #31
 314 0008 20D5     		bpl	.L23
 102:isr.c         ****         /* Read range detect status */
 103:isr.c         ****         range_status = ADC_SAR_RANGE_INTR_MASKED_REG;
 315              		.loc 1 103 0
 316 000a 144B     		ldr	r3, .L24+4
 317 000c 1D68     		ldr	r5, [r3]
 318              	.LVL25:
 104:isr.c         ****         /* Verify that the conversion result met the condition Low_Limit <= Result < High_Limit  */
 105:isr.c         **** // why?       if((range_status & (uint32)(1ul << 0)) != 0u) {
 106:isr.c         ****             // Read conversion results
 107:isr.c         ****             result[e_VCHARGER] = ADC_GetResult16(e_VCHARGER);       // input charger volts
 319              		.loc 1 107 0
 320 000e 0020     		movs	r0, #0
 321 0010 FFF7FEFF 		bl	ADC_GetResult16
 322              	.LVL26:
 323 0014 80B2     		uxth	r0, r0
 324 0016 124C     		ldr	r4, .L24+8
 325 0018 2080     		strh	r0, [r4]
 108:isr.c         ****             result[e_VBUS] = ADC_GetResult16(e_VBUS);               // USB volts            
 326              		.loc 1 108 0
 327 001a 0120     		movs	r0, #1
 328 001c FFF7FEFF 		bl	ADC_GetResult16
 329              	.LVL27:
 330 0020 80B2     		uxth	r0, r0
 331 0022 6080     		strh	r0, [r4, #2]
 109:isr.c         ****             result[e_TEMP] = ADC_GetResult16(e_TEMP);             // local thermal
 332              		.loc 1 109 0
 333 0024 0220     		movs	r0, #2
 334 0026 FFF7FEFF 		bl	ADC_GetResult16
 335              	.LVL28:
 336 002a 80B2     		uxth	r0, r0
 337 002c A080     		strh	r0, [r4, #4]
 110:isr.c         ****             result[e_BATTTEMP] = ADC_GetResult16(e_BATTTEMP);       // battery thermal through mux 
 338              		.loc 1 110 0
 339 002e 0320     		movs	r0, #3
 340 0030 FFF7FEFF 		bl	ADC_GetResult16
 341              	.LVL29:
 342 0034 80B2     		uxth	r0, r0
 343 0036 E080     		strh	r0, [r4, #6]
ARM GAS  C:\Users\jimvr\AppData\Local\Temp\cc0ypu7g.s 			page 9


 111:isr.c         ****             result[e_BATTVSENSE] = ADC_GetResult16(e_BATTVSENSE);   // battery voltage
 344              		.loc 1 111 0
 345 0038 0420     		movs	r0, #4
 346 003a FFF7FEFF 		bl	ADC_GetResult16
 347              	.LVL30:
 348 003e 80B2     		uxth	r0, r0
 349 0040 2081     		strh	r0, [r4, #8]
 112:isr.c         ****                             
 113:isr.c         ****             bDataReady = true;
 350              		.loc 1 113 0
 351 0042 0122     		movs	r2, #1
 352 0044 074B     		ldr	r3, .L24+12
 353 0046 1A70     		strb	r2, [r3]
 114:isr.c         **** //        }    
 115:isr.c         ****         /* Clear range detect status */
 116:isr.c         ****         ADC_SAR_RANGE_INTR_REG = range_status;
 354              		.loc 1 116 0
 355 0048 074B     		ldr	r3, .L24+16
 356 004a 1D60     		str	r5, [r3]
 357              	.LVL31:
 358              	.L23:
 117:isr.c         **** //        dataReady |= ADC_EOS_MASK;
 118:isr.c         ****     }
 119:isr.c         **** 	
 120:isr.c         ****     /* Clear handled interrupt */
 121:isr.c         ****     ADC_SAR_INTR_REG &= ADC_EOS_MASK;
 359              		.loc 1 121 0
 360 004c 074A     		ldr	r2, .L24+20
 361 004e 1368     		ldr	r3, [r2]
 362 0050 0121     		movs	r1, #1
 363 0052 0B40     		ands	r3, r1
 364 0054 1360     		str	r3, [r2]
 122:isr.c         **** }
 365              		.loc 1 122 0
 366              		@ sp needed
 367 0056 70BD     		pop	{r4, r5, r6, pc}
 368              	.L25:
 369              		.align	2
 370              	.L24:
 371 0058 1C021A40 		.word	1075446300
 372 005c 3C021A40 		.word	1075446332
 373 0060 00000000 		.word	result
 374 0064 00000000 		.word	bDataReady
 375 0068 30021A40 		.word	1075446320
 376 006c 10021A40 		.word	1075446288
 377              		.cfi_endproc
 378              	.LFE35:
 379              		.size	ADC_ISR_LOC, .-ADC_ISR_LOC
 380              		.global	uiPWMTarget2
 381              		.global	uiPWMTarget1
 382              		.comm	uiButtonTimer,6,4
 383              		.global	uiWDResetTimer
 384              		.comm	ulUARTTempOutputTimer,4,4
 385              		.comm	uiWriteEEPROMTimer,2,2
 386              		.global	uiBlinkTimer
 387              		.comm	SWPRESSES,1,1
 388              		.data
ARM GAS  C:\Users\jimvr\AppData\Local\Temp\cc0ypu7g.s 			page 10


 389              		.align	1
 390              		.set	.LANCHOR0,. + 0
 391              		.type	uiBlinkTimer, %object
 392              		.size	uiBlinkTimer, 2
 393              	uiBlinkTimer:
 394 0000 F401     		.short	500
 395              		.type	uiWDResetTimer, %object
 396              		.size	uiWDResetTimer, 2
 397              	uiWDResetTimer:
 398 0002 60EA     		.short	-5536
 399              		.bss
 400              		.align	2
 401              		.set	.LANCHOR1,. + 0
 402              		.type	flPWMval1.7692, %object
 403              		.size	flPWMval1.7692, 4
 404              	flPWMval1.7692:
 405 0000 00000000 		.space	4
 406              		.type	uiPWMTarget1, %object
 407              		.size	uiPWMTarget1, 2
 408              	uiPWMTarget1:
 409 0004 0000     		.space	2
 410              		.type	uiPWMval1.7691, %object
 411              		.size	uiPWMval1.7691, 2
 412              	uiPWMval1.7691:
 413 0006 0000     		.space	2
 414              		.type	flPWMval2.7694, %object
 415              		.size	flPWMval2.7694, 4
 416              	flPWMval2.7694:
 417 0008 00000000 		.space	4
 418              		.type	uiPWMTarget2, %object
 419              		.size	uiPWMTarget2, 2
 420              	uiPWMTarget2:
 421 000c 0000     		.space	2
 422              		.type	uiPWMval2.7693, %object
 423              		.size	uiPWMval2.7693, 2
 424              	uiPWMval2.7693:
 425 000e 0000     		.space	2
 426              		.text
 427              	.Letext0:
 428              		.file 2 "Generated_Source\\PSoC4/cytypes.h"
 429              		.file 3 "main.h"
 430              		.file 4 "buttons.h"
 431              		.file 5 "Generated_Source\\PSoC4/PWM_1.h"
 432              		.file 6 "Generated_Source\\PSoC4/PWM_2.h"
 433              		.file 7 "Generated_Source\\PSoC4/ADC.h"