ARM GAS  C:\Users\jimvr\AppData\Local\Temp\ccd10iUv.s 			page 1


   1              		.syntax unified
   2              		.cpu cortex-m0
   3              		.fpu softvfp
   4              		.eabi_attribute 20, 1
   5              		.eabi_attribute 21, 1
   6              		.eabi_attribute 23, 3
   7              		.eabi_attribute 24, 1
   8              		.eabi_attribute 25, 1
   9              		.eabi_attribute 26, 1
  10              		.eabi_attribute 30, 1
  11              		.eabi_attribute 34, 0
  12              		.eabi_attribute 18, 4
  13              		.thumb
  14              		.syntax unified
  15              		.file	"LTC2944.c"
  16              		.text
  17              	.Ltext0:
  18              		.cfi_sections	.debug_frame
  19              		.section	.text.LTC2944_Write,"ax",%progbits
  20              		.align	2
  21              		.global	LTC2944_Write
  22              		.code	16
  23              		.thumb_func
  24              		.type	LTC2944_Write, %function
  25              	LTC2944_Write:
  26              	.LFB33:
  27              		.file 1 "LTC2944.c"
   1:LTC2944.c     **** // File: LTC2944.c
   2:LTC2944.c     **** // Project: Revelite - LTC2944 Battery Fuel Gauge Driver
   3:LTC2944.c     **** //
   4:LTC2944.c     **** //
   5:LTC2944.c     **** 
   6:LTC2944.c     **** #include "project.h"
   7:LTC2944.c     **** #include "main.h"
   8:LTC2944.c     **** #include "battery.h"
   9:LTC2944.c     **** #include "LTC2944.h"
  10:LTC2944.c     **** #include <math.h>
  11:LTC2944.c     **** #include <stdio.h>
  12:LTC2944.c     **** 
  13:LTC2944.c     **** extern structInfo Info;
  14:LTC2944.c     **** extern bool blSaveToInfo;
  15:LTC2944.c     **** 
  16:LTC2944.c     **** //=============================================================================
  17:LTC2944.c     **** // Low-level I2C Functions
  18:LTC2944.c     **** //=============================================================================
  19:LTC2944.c     **** 
  20:LTC2944.c     **** // Write 8-bit value to LTC2944 register using low-level I2C API
  21:LTC2944.c     **** void LTC2944_Write(uint8_t reg, uint8_t value) {
  28              		.loc 1 21 0
  29              		.cfi_startproc
  30              		@ args = 0, pretend = 0, frame = 0
  31              		@ frame_needed = 0, uses_anonymous_args = 0
  32              	.LVL0:
  33 0000 70B5     		push	{r4, r5, r6, lr}
  34              		.cfi_def_cfa_offset 16
  35              		.cfi_offset 4, -16
  36              		.cfi_offset 5, -12
ARM GAS  C:\Users\jimvr\AppData\Local\Temp\ccd10iUv.s 			page 2


  37              		.cfi_offset 6, -8
  38              		.cfi_offset 14, -4
  39 0002 0500     		movs	r5, r0
  40 0004 0C00     		movs	r4, r1
  22:LTC2944.c     ****     I2CM_I2CMasterClearStatus();
  41              		.loc 1 22 0
  42 0006 FFF7FEFF 		bl	I2CM_I2CMasterClearStatus
  43              	.LVL1:
  23:LTC2944.c     ****     
  24:LTC2944.c     ****     if (I2CM_I2CMasterSendStart(LTC2944_ADDR, I2CM_I2C_WRITE_XFER_MODE, 100) == I2CM_I2C_MSTR_NO_ER
  44              		.loc 1 24 0
  45 000a 6422     		movs	r2, #100
  46 000c 0021     		movs	r1, #0
  47 000e 6420     		movs	r0, #100
  48 0010 FFF7FEFF 		bl	I2CM_I2CMasterSendStart
  49              	.LVL2:
  50 0014 0028     		cmp	r0, #0
  51 0016 07D1     		bne	.L2
  25:LTC2944.c     ****         I2CM_I2CMasterWriteByte(reg, 25);
  52              		.loc 1 25 0
  53 0018 1921     		movs	r1, #25
  54 001a 2800     		movs	r0, r5
  55 001c FFF7FEFF 		bl	I2CM_I2CMasterWriteByte
  56              	.LVL3:
  26:LTC2944.c     ****         I2CM_I2CMasterWriteByte(value, 25);
  57              		.loc 1 26 0
  58 0020 1921     		movs	r1, #25
  59 0022 2000     		movs	r0, r4
  60 0024 FFF7FEFF 		bl	I2CM_I2CMasterWriteByte
  61              	.LVL4:
  62              	.L2:
  27:LTC2944.c     ****     }
  28:LTC2944.c     ****     
  29:LTC2944.c     ****     I2CM_I2CMasterSendStop(25);
  63              		.loc 1 29 0
  64 0028 1920     		movs	r0, #25
  65 002a FFF7FEFF 		bl	I2CM_I2CMasterSendStop
  66              	.LVL5:
  30:LTC2944.c     **** }
  67              		.loc 1 30 0
  68              		@ sp needed
  69 002e 70BD     		pop	{r4, r5, r6, pc}
  70              		.cfi_endproc
  71              	.LFE33:
  72              		.size	LTC2944_Write, .-LTC2944_Write
  73              		.section	.text.LTC2944_Read,"ax",%progbits
  74              		.align	2
  75              		.global	LTC2944_Read
  76              		.code	16
  77              		.thumb_func
  78              		.type	LTC2944_Read, %function
  79              	LTC2944_Read:
  80              	.LFB34:
  31:LTC2944.c     **** 
  32:LTC2944.c     **** // Read 8-bit value from LTC2944 register using low-level I2C API
  33:LTC2944.c     **** uint8_t LTC2944_Read(uint8_t reg) {
  81              		.loc 1 33 0
ARM GAS  C:\Users\jimvr\AppData\Local\Temp\ccd10iUv.s 			page 3


  82              		.cfi_startproc
  83              		@ args = 0, pretend = 0, frame = 8
  84              		@ frame_needed = 0, uses_anonymous_args = 0
  85              	.LVL6:
  86 0000 10B5     		push	{r4, lr}
  87              		.cfi_def_cfa_offset 8
  88              		.cfi_offset 4, -8
  89              		.cfi_offset 14, -4
  90 0002 82B0     		sub	sp, sp, #8
  91              		.cfi_def_cfa_offset 16
  92 0004 0400     		movs	r4, r0
  34:LTC2944.c     ****     uint8_t value = 0;
  93              		.loc 1 34 0
  94 0006 0022     		movs	r2, #0
  95 0008 6B46     		mov	r3, sp
  96 000a DA71     		strb	r2, [r3, #7]
  97              	.LVL7:
  35:LTC2944.c     ****     uint32_t status = 0;
  36:LTC2944.c     ****     
  37:LTC2944.c     ****     I2CM_I2CMasterClearStatus();
  98              		.loc 1 37 0
  99 000c FFF7FEFF 		bl	I2CM_I2CMasterClearStatus
 100              	.LVL8:
  38:LTC2944.c     ****     
  39:LTC2944.c     ****     // Write register address
  40:LTC2944.c     ****     if (I2CM_I2CMasterSendStart(LTC2944_ADDR, I2CM_I2C_WRITE_XFER_MODE, 100) == I2CM_I2C_MSTR_NO_ER
 101              		.loc 1 40 0
 102 0010 6422     		movs	r2, #100
 103 0012 0021     		movs	r1, #0
 104 0014 6420     		movs	r0, #100
 105 0016 FFF7FEFF 		bl	I2CM_I2CMasterSendStart
 106              	.LVL9:
 107 001a 0028     		cmp	r0, #0
 108 001c 03D1     		bne	.L4
  41:LTC2944.c     ****         I2CM_I2CMasterWriteByte(reg, 25);
 109              		.loc 1 41 0
 110 001e 1921     		movs	r1, #25
 111 0020 2000     		movs	r0, r4
 112 0022 FFF7FEFF 		bl	I2CM_I2CMasterWriteByte
 113              	.LVL10:
 114              	.L4:
  42:LTC2944.c     ****     }
  43:LTC2944.c     ****     
  44:LTC2944.c     ****     // Repeated start for read
  45:LTC2944.c     ****     if (I2CM_I2CMasterSendRestart(LTC2944_ADDR, I2CM_I2C_READ_XFER_MODE, 100) == I2CM_I2C_MSTR_NO_E
 115              		.loc 1 45 0
 116 0026 6422     		movs	r2, #100
 117 0028 0121     		movs	r1, #1
 118 002a 6420     		movs	r0, #100
 119 002c FFF7FEFF 		bl	I2CM_I2CMasterSendRestart
 120              	.LVL11:
 121 0030 0028     		cmp	r0, #0
 122 0032 05D1     		bne	.L5
  46:LTC2944.c     ****         I2CM_I2CMasterReadByte(I2CM_I2C_NAK_DATA, (uint8*)&value, 25);  // Read single byte, send N
 123              		.loc 1 46 0
 124 0034 1922     		movs	r2, #25
 125 0036 6B46     		mov	r3, sp
ARM GAS  C:\Users\jimvr\AppData\Local\Temp\ccd10iUv.s 			page 4


 126 0038 D91D     		adds	r1, r3, #7
 127 003a 0130     		adds	r0, r0, #1
 128 003c FFF7FEFF 		bl	I2CM_I2CMasterReadByte
 129              	.LVL12:
 130              	.L5:
  47:LTC2944.c     ****     }
  48:LTC2944.c     ****     
  49:LTC2944.c     ****     I2CM_I2CMasterSendStop(25);
 131              		.loc 1 49 0
 132 0040 1920     		movs	r0, #25
 133 0042 FFF7FEFF 		bl	I2CM_I2CMasterSendStop
 134              	.LVL13:
  50:LTC2944.c     ****     
  51:LTC2944.c     ****     return value;
 135              		.loc 1 51 0
 136 0046 6B46     		mov	r3, sp
 137 0048 D879     		ldrb	r0, [r3, #7]
  52:LTC2944.c     **** }
 138              		.loc 1 52 0
 139 004a 02B0     		add	sp, sp, #8
 140              		@ sp needed
 141 004c 10BD     		pop	{r4, pc}
 142              		.cfi_endproc
 143              	.LFE34:
 144              		.size	LTC2944_Read, .-LTC2944_Read
 145 004e C046     		.section	.text.LTC2944_Read16,"ax",%progbits
 146              		.align	2
 147              		.global	LTC2944_Read16
 148              		.code	16
 149              		.thumb_func
 150              		.type	LTC2944_Read16, %function
 151              	LTC2944_Read16:
 152              	.LFB35:
  53:LTC2944.c     **** 
  54:LTC2944.c     **** // Read 16-bit value (MSB first) starting at specified register
  55:LTC2944.c     **** uint16_t LTC2944_Read16(uint8_t reg_msb) {
 153              		.loc 1 55 0
 154              		.cfi_startproc
 155              		@ args = 0, pretend = 0, frame = 8
 156              		@ frame_needed = 0, uses_anonymous_args = 0
 157              	.LVL14:
 158 0000 10B5     		push	{r4, lr}
 159              		.cfi_def_cfa_offset 8
 160              		.cfi_offset 4, -8
 161              		.cfi_offset 14, -4
 162 0002 82B0     		sub	sp, sp, #8
 163              		.cfi_def_cfa_offset 16
 164 0004 0400     		movs	r4, r0
  56:LTC2944.c     ****     uint8_t msb = 0, lsb = 0;
 165              		.loc 1 56 0
 166 0006 0023     		movs	r3, #0
 167 0008 6A46     		mov	r2, sp
 168 000a D371     		strb	r3, [r2, #7]
 169 000c 6A46     		mov	r2, sp
 170 000e 9371     		strb	r3, [r2, #6]
 171              	.LVL15:
  57:LTC2944.c     ****     uint32_t status = 0;
ARM GAS  C:\Users\jimvr\AppData\Local\Temp\ccd10iUv.s 			page 5


  58:LTC2944.c     ****     
  59:LTC2944.c     ****     I2CM_I2CMasterClearStatus();
 172              		.loc 1 59 0
 173 0010 FFF7FEFF 		bl	I2CM_I2CMasterClearStatus
 174              	.LVL16:
  60:LTC2944.c     ****     
  61:LTC2944.c     ****     // Write register address
  62:LTC2944.c     ****     if (I2CM_I2CMasterSendStart(LTC2944_ADDR, I2CM_I2C_WRITE_XFER_MODE, 100) == I2CM_I2C_MSTR_NO_ER
 175              		.loc 1 62 0
 176 0014 6422     		movs	r2, #100
 177 0016 0021     		movs	r1, #0
 178 0018 6420     		movs	r0, #100
 179 001a FFF7FEFF 		bl	I2CM_I2CMasterSendStart
 180              	.LVL17:
 181 001e 0028     		cmp	r0, #0
 182 0020 03D1     		bne	.L7
  63:LTC2944.c     ****         I2CM_I2CMasterWriteByte(reg_msb, 25);
 183              		.loc 1 63 0
 184 0022 1921     		movs	r1, #25
 185 0024 2000     		movs	r0, r4
 186 0026 FFF7FEFF 		bl	I2CM_I2CMasterWriteByte
 187              	.LVL18:
 188              	.L7:
  64:LTC2944.c     ****     }
  65:LTC2944.c     ****     
  66:LTC2944.c     ****     // Repeated start for read
  67:LTC2944.c     ****     if (I2CM_I2CMasterSendRestart(LTC2944_ADDR, I2CM_I2C_READ_XFER_MODE, 100) == I2CM_I2C_MSTR_NO_E
 189              		.loc 1 67 0
 190 002a 6422     		movs	r2, #100
 191 002c 0121     		movs	r1, #1
 192 002e 6420     		movs	r0, #100
 193 0030 FFF7FEFF 		bl	I2CM_I2CMasterSendRestart
 194              	.LVL19:
 195 0034 0028     		cmp	r0, #0
 196 0036 0AD1     		bne	.L8
  68:LTC2944.c     ****         I2CM_I2CMasterReadByte(I2CM_I2C_ACK_DATA, (uint8*)&msb, 25);   // Read MSB, send ACK
 197              		.loc 1 68 0
 198 0038 1922     		movs	r2, #25
 199 003a 6B46     		mov	r3, sp
 200 003c D91D     		adds	r1, r3, #7
 201 003e FFF7FEFF 		bl	I2CM_I2CMasterReadByte
 202              	.LVL20:
  69:LTC2944.c     ****         I2CM_I2CMasterReadByte(I2CM_I2C_NAK_DATA, (uint8*)&lsb, 25);   // Read LSB, send NACK
 203              		.loc 1 69 0
 204 0042 1922     		movs	r2, #25
 205 0044 6B46     		mov	r3, sp
 206 0046 991D     		adds	r1, r3, #6
 207 0048 0120     		movs	r0, #1
 208 004a FFF7FEFF 		bl	I2CM_I2CMasterReadByte
 209              	.LVL21:
 210              	.L8:
  70:LTC2944.c     ****     }
  71:LTC2944.c     ****     
  72:LTC2944.c     ****     I2CM_I2CMasterSendStop(25);
 211              		.loc 1 72 0
 212 004e 1920     		movs	r0, #25
 213 0050 FFF7FEFF 		bl	I2CM_I2CMasterSendStop
ARM GAS  C:\Users\jimvr\AppData\Local\Temp\ccd10iUv.s 			page 6


 214              	.LVL22:
  73:LTC2944.c     ****     
  74:LTC2944.c     ****     return ((uint16_t)msb << 8) | lsb;
 215              		.loc 1 74 0
 216 0054 6B46     		mov	r3, sp
 217 0056 D879     		ldrb	r0, [r3, #7]
 218 0058 0002     		lsls	r0, r0, #8
 219 005a 6B46     		mov	r3, sp
 220 005c 0633     		adds	r3, r3, #6
 221 005e 1B78     		ldrb	r3, [r3]
 222 0060 1843     		orrs	r0, r3
  75:LTC2944.c     **** }
 223              		.loc 1 75 0
 224 0062 02B0     		add	sp, sp, #8
 225              		@ sp needed
 226 0064 10BD     		pop	{r4, pc}
 227              		.cfi_endproc
 228              	.LFE35:
 229              		.size	LTC2944_Read16, .-LTC2944_Read16
 230              		.global	__aeabi_i2d
 231              		.global	__aeabi_ddiv
 232              		.global	__aeabi_d2uiz
 233 0066 C046     		.section	.text.LTC2944_SetAccumulatedCharge,"ax",%progbits
 234              		.align	2
 235              		.global	LTC2944_SetAccumulatedCharge
 236              		.code	16
 237              		.thumb_func
 238              		.type	LTC2944_SetAccumulatedCharge, %function
 239              	LTC2944_SetAccumulatedCharge:
 240              	.LFB37:
  76:LTC2944.c     **** 
  77:LTC2944.c     **** //=============================================================================
  78:LTC2944.c     **** // LTC2944 Initialization and Configuration
  79:LTC2944.c     **** //=============================================================================
  80:LTC2944.c     **** 
  81:LTC2944.c     **** // Initialize the LTC2944
  82:LTC2944.c     **** bool LTC2944_Init(uint16_t battery_capacity_mAh, uint8_t prescaler) {
  83:LTC2944.c     ****     // Configure control register: prescaler, ALCC mode, ADC mode automatic
  84:LTC2944.c     ****     uint8_t control = 0;
  85:LTC2944.c     **** 
  86:LTC2944.c     ****     // Prescaler setting (user provided)
  87:LTC2944.c     ****     control |= prescaler;
  88:LTC2944.c     **** 
  89:LTC2944.c     ****     // ALCC pin as alert output
  90:LTC2944.c     ****     control |= LTC2944_ALCC_MODE_ALERT;
  91:LTC2944.c     **** 
  92:LTC2944.c     ****     // Automatic mode
  93:LTC2944.c     ****     control |= (LTC2944_ADC_MODE_AUTOMATIC << 6);
  94:LTC2944.c     **** 
  95:LTC2944.c     ****     // Write control register
  96:LTC2944.c     ****     LTC2944_Write(LTC2944_REG_CONTROL, control);
  97:LTC2944.c     **** 
  98:LTC2944.c     ****     // Clear any existing alerts
  99:LTC2944.c     ****     LTC2944_ClearAlerts();
 100:LTC2944.c     **** 
 101:LTC2944.c     ****     // Set accumulated charge to half of full-scale for better headroom
 102:LTC2944.c     ****     // Full scale is 65535 counts for accumulated charge
ARM GAS  C:\Users\jimvr\AppData\Local\Temp\ccd10iUv.s 			page 7


 103:LTC2944.c     ****     // For state of charge estimation, we'll use the provided capacity
 104:LTC2944.c     ****     LTC2944_SetAccumulatedCharge(battery_capacity_mAh / 2);
 105:LTC2944.c     **** 
 106:LTC2944.c     ****     return true;
 107:LTC2944.c     **** }
 108:LTC2944.c     **** 
 109:LTC2944.c     **** // Set accumulated charge value based on mAh
 110:LTC2944.c     **** void LTC2944_SetAccumulatedCharge(uint16_t charge_mAh) {
 241              		.loc 1 110 0
 242              		.cfi_startproc
 243              		@ args = 0, pretend = 0, frame = 0
 244              		@ frame_needed = 0, uses_anonymous_args = 0
 245              	.LVL23:
 246 0000 10B5     		push	{r4, lr}
 247              		.cfi_def_cfa_offset 8
 248              		.cfi_offset 4, -8
 249              		.cfi_offset 14, -4
 111:LTC2944.c     ****     // Convert mAh to raw counts based on prescaler and RSENSE
 112:LTC2944.c     ****     // This is a simplified conversion and may need calibration
 113:LTC2944.c     ****     // For more accuracy, you should use the exact formula from datasheet
 114:LTC2944.c     ****     uint16_t counts = (uint16_t)(charge_mAh / LTC2944_CHARGE_LSB);
 250              		.loc 1 114 0
 251 0002 FFF7FEFF 		bl	__aeabi_i2d
 252              	.LVL24:
 253 0006 084A     		ldr	r2, .L10
 254 0008 084B     		ldr	r3, .L10+4
 255 000a FFF7FEFF 		bl	__aeabi_ddiv
 256              	.LVL25:
 257 000e FFF7FEFF 		bl	__aeabi_d2uiz
 258              	.LVL26:
 259 0012 80B2     		uxth	r0, r0
 260              	.LVL27:
 115:LTC2944.c     ****     
 116:LTC2944.c     ****     // Clamp to 16-bit
 117:LTC2944.c     ****     if (counts > 0xFFFF) counts = 0xFFFF;
 118:LTC2944.c     **** 
 119:LTC2944.c     ****     // Write to accumulated charge registers
 120:LTC2944.c     ****     uint8_t msb = (counts >> 8) & 0xFF;
 261              		.loc 1 120 0
 262 0014 010A     		lsrs	r1, r0, #8
 263              	.LVL28:
 121:LTC2944.c     ****     uint8_t lsb = counts & 0xFF;
 264              		.loc 1 121 0
 265 0016 C4B2     		uxtb	r4, r0
 266              	.LVL29:
 122:LTC2944.c     **** 
 123:LTC2944.c     ****     LTC2944_Write(LTC2944_REG_ACC_CHARGE_MSB, msb);
 267              		.loc 1 123 0
 268 0018 0220     		movs	r0, #2
 269              	.LVL30:
 270 001a FFF7FEFF 		bl	LTC2944_Write
 271              	.LVL31:
 124:LTC2944.c     ****     LTC2944_Write(LTC2944_REG_ACC_CHARGE_LSB, lsb);
 272              		.loc 1 124 0
 273 001e 2100     		movs	r1, r4
 274 0020 0320     		movs	r0, #3
 275 0022 FFF7FEFF 		bl	LTC2944_Write
ARM GAS  C:\Users\jimvr\AppData\Local\Temp\ccd10iUv.s 			page 8


 276              	.LVL32:
 125:LTC2944.c     **** }
 277              		.loc 1 125 0
 278              		@ sp needed
 279              	.LVL33:
 280 0026 10BD     		pop	{r4, pc}
 281              	.L11:
 282              		.align	2
 283              	.L10:
 284 0028 C3F5285C 		.word	1546188227
 285 002c 8FC2D53F 		.word	1070973583
 286              		.cfi_endproc
 287              	.LFE37:
 288              		.size	LTC2944_SetAccumulatedCharge, .-LTC2944_SetAccumulatedCharge
 289              		.global	__aeabi_ui2f
 290              		.global	__aeabi_f2d
 291              		.global	__aeabi_dmul
 292              		.global	__aeabi_d2f
 293              		.global	__aeabi_i2f
 294              		.global	__aeabi_dsub
 295              		.global	__aeabi_fdiv
 296              		.global	__aeabi_fmul
 297              		.global	__aeabi_fcmplt
 298              		.global	__aeabi_fcmpgt
 299              		.section	.text.LTC2944_GetStatus,"ax",%progbits
 300              		.align	2
 301              		.global	LTC2944_GetStatus
 302              		.code	16
 303              		.thumb_func
 304              		.type	LTC2944_GetStatus, %function
 305              	LTC2944_GetStatus:
 306              	.LFB38:
 126:LTC2944.c     **** 
 127:LTC2944.c     **** //=============================================================================
 128:LTC2944.c     **** // LTC2944 Monitoring Functions
 129:LTC2944.c     **** //=============================================================================
 130:LTC2944.c     **** 
 131:LTC2944.c     **** // Get comprehensive fuel gauge status
 132:LTC2944.c     **** FuelGauge_t LTC2944_GetStatus(void) {
 307              		.loc 1 132 0
 308              		.cfi_startproc
 309              		@ args = 0, pretend = 0, frame = 0
 310              		@ frame_needed = 0, uses_anonymous_args = 0
 311              	.LVL34:
 312 0000 70B5     		push	{r4, r5, r6, lr}
 313              		.cfi_def_cfa_offset 16
 314              		.cfi_offset 4, -16
 315              		.cfi_offset 5, -12
 316              		.cfi_offset 6, -8
 317              		.cfi_offset 14, -4
 318 0002 0400     		movs	r4, r0
 133:LTC2944.c     ****     FuelGauge_t status = {0};
 319              		.loc 1 133 0
 320 0004 2C22     		movs	r2, #44
 321 0006 0021     		movs	r1, #0
 322 0008 FFF7FEFF 		bl	memset
 323              	.LVL35:
ARM GAS  C:\Users\jimvr\AppData\Local\Temp\ccd10iUv.s 			page 9


 134:LTC2944.c     **** 
 135:LTC2944.c     ****     // Read status register
 136:LTC2944.c     ****     status.status_reg = LTC2944_Read(LTC2944_REG_STATUS);
 324              		.loc 1 136 0
 325 000c 0020     		movs	r0, #0
 326 000e FFF7FEFF 		bl	LTC2944_Read
 327              	.LVL36:
 328 0012 2023     		movs	r3, #32
 329 0014 E054     		strb	r0, [r4, r3]
 137:LTC2944.c     ****     status.alert_present = (status.status_reg & (LTC2944_STATUS_CHARGE_ALERT_HIGH |
 138:LTC2944.c     ****                                                  LTC2944_STATUS_CHARGE_ALERT_LOW |
 139:LTC2944.c     ****                                                  LTC2944_STATUS_VOLTAGE_ALERT |
 140:LTC2944.c     ****                                                  LTC2944_STATUS_CURRENT_ALERT |
 141:LTC2944.c     ****                                                  LTC2944_STATUS_TEMP_ALERT)) ? true : false;
 330              		.loc 1 141 0
 331 0016 1E33     		adds	r3, r3, #30
 332 0018 1840     		ands	r0, r3
 333 001a 431E     		subs	r3, r0, #1
 334 001c 9841     		sbcs	r0, r0, r3
 137:LTC2944.c     ****     status.alert_present = (status.status_reg & (LTC2944_STATUS_CHARGE_ALERT_HIGH |
 335              		.loc 1 137 0
 336 001e 2823     		movs	r3, #40
 337 0020 E054     		strb	r0, [r4, r3]
 142:LTC2944.c     **** 
 143:LTC2944.c     ****     // Read accumulated charge
 144:LTC2944.c     ****     status.accumulated_charge_raw = LTC2944_Read16(LTC2944_REG_ACC_CHARGE_MSB);
 338              		.loc 1 144 0
 339 0022 0220     		movs	r0, #2
 340 0024 FFF7FEFF 		bl	LTC2944_Read16
 341              	.LVL37:
 342 0028 2080     		strh	r0, [r4]
 145:LTC2944.c     ****     status.accumulated_charge_mAh = (float)status.accumulated_charge_raw * LTC2944_CHARGE_LSB;
 343              		.loc 1 145 0
 344 002a FFF7FEFF 		bl	__aeabi_ui2f
 345              	.LVL38:
 346 002e FFF7FEFF 		bl	__aeabi_f2d
 347              	.LVL39:
 348 0032 2A4A     		ldr	r2, .L19
 349 0034 2A4B     		ldr	r3, .L19+4
 350 0036 FFF7FEFF 		bl	__aeabi_dmul
 351              	.LVL40:
 352 003a FFF7FEFF 		bl	__aeabi_d2f
 353              	.LVL41:
 354 003e 051C     		adds	r5, r0, #0
 355 0040 6060     		str	r0, [r4, #4]
 146:LTC2944.c     **** 
 147:LTC2944.c     ****     // Read voltage
 148:LTC2944.c     ****     status.voltage_raw = LTC2944_Read16(LTC2944_REG_VOLTAGE_MSB);
 356              		.loc 1 148 0
 357 0042 0820     		movs	r0, #8
 358 0044 FFF7FEFF 		bl	LTC2944_Read16
 359              	.LVL42:
 360 0048 2081     		strh	r0, [r4, #8]
 149:LTC2944.c     ****     status.voltage_mv = (float)status.voltage_raw * LTC2944_VOLTAGE_LSB;
 361              		.loc 1 149 0
 362 004a FFF7FEFF 		bl	__aeabi_ui2f
 363              	.LVL43:
ARM GAS  C:\Users\jimvr\AppData\Local\Temp\ccd10iUv.s 			page 10


 364 004e FFF7FEFF 		bl	__aeabi_f2d
 365              	.LVL44:
 366 0052 244A     		ldr	r2, .L19+8
 367 0054 244B     		ldr	r3, .L19+12
 368 0056 FFF7FEFF 		bl	__aeabi_dmul
 369              	.LVL45:
 370 005a FFF7FEFF 		bl	__aeabi_d2f
 371              	.LVL46:
 372 005e E060     		str	r0, [r4, #12]
 150:LTC2944.c     **** 
 151:LTC2944.c     ****     // Read current (two's complement)
 152:LTC2944.c     ****     status.current_raw = LTC2944_Read16(LTC2944_REG_CURRENT_MSB);
 373              		.loc 1 152 0
 374 0060 0E20     		movs	r0, #14
 375 0062 FFF7FEFF 		bl	LTC2944_Read16
 376              	.LVL47:
 377 0066 2082     		strh	r0, [r4, #16]
 153:LTC2944.c     ****     int16_t current_signed = (int16_t)status.current_raw;
 378              		.loc 1 153 0
 379 0068 00B2     		sxth	r0, r0
 380              	.LVL48:
 154:LTC2944.c     ****     status.current_ma = (float)current_signed * (LTC2944_CURRENT_LSB_60mV / RSENSE);
 381              		.loc 1 154 0
 382 006a FFF7FEFF 		bl	__aeabi_i2f
 383              	.LVL49:
 384 006e FFF7FEFF 		bl	__aeabi_f2d
 385              	.LVL50:
 386 0072 1E4A     		ldr	r2, .L19+16
 387 0074 1E4B     		ldr	r3, .L19+20
 388 0076 FFF7FEFF 		bl	__aeabi_dmul
 389              	.LVL51:
 390 007a FFF7FEFF 		bl	__aeabi_d2f
 391              	.LVL52:
 392 007e 6061     		str	r0, [r4, #20]
 155:LTC2944.c     **** 
 156:LTC2944.c     ****     // Read temperature
 157:LTC2944.c     ****     status.temperature_raw = LTC2944_Read16(LTC2944_REG_TEMPERATURE_MSB);
 393              		.loc 1 157 0
 394 0080 1420     		movs	r0, #20
 395 0082 FFF7FEFF 		bl	LTC2944_Read16
 396              	.LVL53:
 397 0086 2083     		strh	r0, [r4, #24]
 158:LTC2944.c     ****     status.temperature_c = ((float)status.temperature_raw * LTC2944_TEMP_LSB) - 273.15f;
 398              		.loc 1 158 0
 399 0088 FFF7FEFF 		bl	__aeabi_ui2f
 400              	.LVL54:
 401 008c FFF7FEFF 		bl	__aeabi_f2d
 402              	.LVL55:
 403 0090 0022     		movs	r2, #0
 404 0092 184B     		ldr	r3, .L19+24
 405 0094 FFF7FEFF 		bl	__aeabi_dmul
 406              	.LVL56:
 407 0098 C022     		movs	r2, #192
 408 009a D205     		lsls	r2, r2, #23
 409 009c 164B     		ldr	r3, .L19+28
 410 009e FFF7FEFF 		bl	__aeabi_dsub
 411              	.LVL57:
ARM GAS  C:\Users\jimvr\AppData\Local\Temp\ccd10iUv.s 			page 11


 412 00a2 FFF7FEFF 		bl	__aeabi_d2f
 413              	.LVL58:
 414 00a6 E061     		str	r0, [r4, #28]
 415              	.LVL59:
 159:LTC2944.c     **** 
 160:LTC2944.c     ****     // Estimate state of charge (basic)
 161:LTC2944.c     ****     float capacity_mAh = (float)BATTERY_CAPACITY_MAH;
 162:LTC2944.c     ****     status.state_of_charge = (status.accumulated_charge_mAh / capacity_mAh) * 100.0f;
 416              		.loc 1 162 0
 417 00a8 1449     		ldr	r1, .L19+32
 418 00aa 281C     		adds	r0, r5, #0
 419 00ac FFF7FEFF 		bl	__aeabi_fdiv
 420              	.LVL60:
 421 00b0 1349     		ldr	r1, .L19+36
 422 00b2 FFF7FEFF 		bl	__aeabi_fmul
 423              	.LVL61:
 424 00b6 6062     		str	r0, [r4, #36]
 163:LTC2944.c     ****     if (status.state_of_charge < 0.0f) status.state_of_charge = 0.0f;
 425              		.loc 1 163 0
 426 00b8 0021     		movs	r1, #0
 427 00ba FFF7FEFF 		bl	__aeabi_fcmplt
 428              	.LVL62:
 429 00be 0028     		cmp	r0, #0
 430 00c0 01D0     		beq	.L13
 431              		.loc 1 163 0 is_stmt 0 discriminator 1
 432 00c2 0023     		movs	r3, #0
 433 00c4 6362     		str	r3, [r4, #36]
 434              	.L13:
 164:LTC2944.c     ****     if (status.state_of_charge > 100.0f) status.state_of_charge = 100.0f;
 435              		.loc 1 164 0 is_stmt 1
 436 00c6 0E49     		ldr	r1, .L19+36
 437 00c8 606A     		ldr	r0, [r4, #36]
 438 00ca FFF7FEFF 		bl	__aeabi_fcmpgt
 439              	.LVL63:
 440 00ce 0028     		cmp	r0, #0
 441 00d0 01D0     		beq	.L12
 442              		.loc 1 164 0 is_stmt 0 discriminator 1
 443 00d2 0B4B     		ldr	r3, .L19+36
 444 00d4 6362     		str	r3, [r4, #36]
 445              	.L12:
 165:LTC2944.c     **** 
 166:LTC2944.c     ****     return status;
 167:LTC2944.c     **** }
 446              		.loc 1 167 0 is_stmt 1
 447 00d6 2000     		movs	r0, r4
 448              		@ sp needed
 449              	.LVL64:
 450 00d8 70BD     		pop	{r4, r5, r6, pc}
 451              	.L20:
 452 00da C046     		.align	2
 453              	.L19:
 454 00dc C3F5285C 		.word	1546188227
 455 00e0 8FC2D53F 		.word	1070973583
 456 00e4 0AD7A370 		.word	1889785610
 457 00e8 3D0AF73F 		.word	1073154621
 458 00ec 8D976E12 		.word	309237645
 459 00f0 83C0E23F 		.word	1071825027
ARM GAS  C:\Users\jimvr\AppData\Local\Temp\ccd10iUv.s 			page 12


 460 00f4 0000D03F 		.word	1070596096
 461 00f8 66127140 		.word	1081152102
 462 00fc 00C05A45 		.word	1163575296
 463 0100 0000C842 		.word	1120403456
 464              		.cfi_endproc
 465              	.LFE38:
 466              		.size	LTC2944_GetStatus, .-LTC2944_GetStatus
 467              		.section	.text.LTC2944_GetVoltage_mV,"ax",%progbits
 468              		.align	2
 469              		.global	LTC2944_GetVoltage_mV
 470              		.code	16
 471              		.thumb_func
 472              		.type	LTC2944_GetVoltage_mV, %function
 473              	LTC2944_GetVoltage_mV:
 474              	.LFB39:
 168:LTC2944.c     **** 
 169:LTC2944.c     **** float LTC2944_GetVoltage_mV(void) {
 475              		.loc 1 169 0
 476              		.cfi_startproc
 477              		@ args = 0, pretend = 0, frame = 0
 478              		@ frame_needed = 0, uses_anonymous_args = 0
 479 0000 10B5     		push	{r4, lr}
 480              		.cfi_def_cfa_offset 8
 481              		.cfi_offset 4, -8
 482              		.cfi_offset 14, -4
 170:LTC2944.c     ****     uint16_t raw = LTC2944_Read16(LTC2944_REG_VOLTAGE_MSB);
 483              		.loc 1 170 0
 484 0002 0820     		movs	r0, #8
 485 0004 FFF7FEFF 		bl	LTC2944_Read16
 486              	.LVL65:
 171:LTC2944.c     ****     return (float)raw * LTC2944_VOLTAGE_LSB;
 487              		.loc 1 171 0
 488 0008 FFF7FEFF 		bl	__aeabi_ui2f
 489              	.LVL66:
 490 000c FFF7FEFF 		bl	__aeabi_f2d
 491              	.LVL67:
 492 0010 034A     		ldr	r2, .L22
 493 0012 044B     		ldr	r3, .L22+4
 494 0014 FFF7FEFF 		bl	__aeabi_dmul
 495              	.LVL68:
 496 0018 FFF7FEFF 		bl	__aeabi_d2f
 497              	.LVL69:
 172:LTC2944.c     **** }
 498              		.loc 1 172 0
 499              		@ sp needed
 500 001c 10BD     		pop	{r4, pc}
 501              	.L23:
 502 001e C046     		.align	2
 503              	.L22:
 504 0020 0AD7A370 		.word	1889785610
 505 0024 3D0AF73F 		.word	1073154621
 506              		.cfi_endproc
 507              	.LFE39:
 508              		.size	LTC2944_GetVoltage_mV, .-LTC2944_GetVoltage_mV
 509              		.section	.text.LTC2944_GetCurrent_MA_Internal,"ax",%progbits
 510              		.align	2
 511              		.global	LTC2944_GetCurrent_MA_Internal
ARM GAS  C:\Users\jimvr\AppData\Local\Temp\ccd10iUv.s 			page 13


 512              		.code	16
 513              		.thumb_func
 514              		.type	LTC2944_GetCurrent_MA_Internal, %function
 515              	LTC2944_GetCurrent_MA_Internal:
 516              	.LFB40:
 173:LTC2944.c     **** 
 174:LTC2944.c     **** float LTC2944_GetCurrent_MA_Internal(void) {
 517              		.loc 1 174 0
 518              		.cfi_startproc
 519              		@ args = 0, pretend = 0, frame = 0
 520              		@ frame_needed = 0, uses_anonymous_args = 0
 521 0000 10B5     		push	{r4, lr}
 522              		.cfi_def_cfa_offset 8
 523              		.cfi_offset 4, -8
 524              		.cfi_offset 14, -4
 175:LTC2944.c     ****     uint16_t raw = LTC2944_Read16(LTC2944_REG_CURRENT_MSB);
 525              		.loc 1 175 0
 526 0002 0E20     		movs	r0, #14
 527 0004 FFF7FEFF 		bl	LTC2944_Read16
 528              	.LVL70:
 176:LTC2944.c     ****     int16_t signed_current = (int16_t)raw;
 529              		.loc 1 176 0
 530 0008 00B2     		sxth	r0, r0
 531              	.LVL71:
 177:LTC2944.c     ****     return (float)signed_current * (LTC2944_CURRENT_LSB_60mV / RSENSE);
 532              		.loc 1 177 0
 533 000a FFF7FEFF 		bl	__aeabi_i2f
 534              	.LVL72:
 535 000e FFF7FEFF 		bl	__aeabi_f2d
 536              	.LVL73:
 537 0012 034A     		ldr	r2, .L25
 538 0014 034B     		ldr	r3, .L25+4
 539 0016 FFF7FEFF 		bl	__aeabi_dmul
 540              	.LVL74:
 541 001a FFF7FEFF 		bl	__aeabi_d2f
 542              	.LVL75:
 178:LTC2944.c     **** }
 543              		.loc 1 178 0
 544              		@ sp needed
 545 001e 10BD     		pop	{r4, pc}
 546              	.L26:
 547              		.align	2
 548              	.L25:
 549 0020 8D976E12 		.word	309237645
 550 0024 83C0E23F 		.word	1071825027
 551              		.cfi_endproc
 552              	.LFE40:
 553              		.size	LTC2944_GetCurrent_MA_Internal, .-LTC2944_GetCurrent_MA_Internal
 554              		.section	.text.LTC2944_GetCurrent_mA,"ax",%progbits
 555              		.align	2
 556              		.global	LTC2944_GetCurrent_mA
 557              		.code	16
 558              		.thumb_func
 559              		.type	LTC2944_GetCurrent_mA, %function
 560              	LTC2944_GetCurrent_mA:
 561              	.LFB41:
 179:LTC2944.c     **** 
ARM GAS  C:\Users\jimvr\AppData\Local\Temp\ccd10iUv.s 			page 14


 180:LTC2944.c     **** float LTC2944_GetCurrent_mA(void) {
 562              		.loc 1 180 0
 563              		.cfi_startproc
 564              		@ args = 0, pretend = 0, frame = 0
 565              		@ frame_needed = 0, uses_anonymous_args = 0
 566 0000 10B5     		push	{r4, lr}
 567              		.cfi_def_cfa_offset 8
 568              		.cfi_offset 4, -8
 569              		.cfi_offset 14, -4
 181:LTC2944.c     ****     return LTC2944_GetCurrent_MA_Internal();
 570              		.loc 1 181 0
 571 0002 FFF7FEFF 		bl	LTC2944_GetCurrent_MA_Internal
 572              	.LVL76:
 182:LTC2944.c     **** }
 573              		.loc 1 182 0
 574              		@ sp needed
 575 0006 10BD     		pop	{r4, pc}
 576              		.cfi_endproc
 577              	.LFE41:
 578              		.size	LTC2944_GetCurrent_mA, .-LTC2944_GetCurrent_mA
 579              		.section	.text.LTC2944_GetTemperature_C,"ax",%progbits
 580              		.align	2
 581              		.global	LTC2944_GetTemperature_C
 582              		.code	16
 583              		.thumb_func
 584              		.type	LTC2944_GetTemperature_C, %function
 585              	LTC2944_GetTemperature_C:
 586              	.LFB42:
 183:LTC2944.c     **** 
 184:LTC2944.c     **** float LTC2944_GetTemperature_C(void) {
 587              		.loc 1 184 0
 588              		.cfi_startproc
 589              		@ args = 0, pretend = 0, frame = 0
 590              		@ frame_needed = 0, uses_anonymous_args = 0
 591 0000 10B5     		push	{r4, lr}
 592              		.cfi_def_cfa_offset 8
 593              		.cfi_offset 4, -8
 594              		.cfi_offset 14, -4
 185:LTC2944.c     ****     uint16_t raw = LTC2944_Read16(LTC2944_REG_TEMPERATURE_MSB);
 595              		.loc 1 185 0
 596 0002 1420     		movs	r0, #20
 597 0004 FFF7FEFF 		bl	LTC2944_Read16
 598              	.LVL77:
 186:LTC2944.c     ****     return ((float)raw * LTC2944_TEMP_LSB) - 273.15f;
 599              		.loc 1 186 0
 600 0008 FFF7FEFF 		bl	__aeabi_ui2f
 601              	.LVL78:
 602 000c FFF7FEFF 		bl	__aeabi_f2d
 603              	.LVL79:
 604 0010 0022     		movs	r2, #0
 605 0012 054B     		ldr	r3, .L29
 606 0014 FFF7FEFF 		bl	__aeabi_dmul
 607              	.LVL80:
 608 0018 C022     		movs	r2, #192
 609 001a D205     		lsls	r2, r2, #23
 610 001c 034B     		ldr	r3, .L29+4
 611 001e FFF7FEFF 		bl	__aeabi_dsub
ARM GAS  C:\Users\jimvr\AppData\Local\Temp\ccd10iUv.s 			page 15


 612              	.LVL81:
 613 0022 FFF7FEFF 		bl	__aeabi_d2f
 614              	.LVL82:
 187:LTC2944.c     **** }
 615              		.loc 1 187 0
 616              		@ sp needed
 617 0026 10BD     		pop	{r4, pc}
 618              	.L30:
 619              		.align	2
 620              	.L29:
 621 0028 0000D03F 		.word	1070596096
 622 002c 66127140 		.word	1081152102
 623              		.cfi_endproc
 624              	.LFE42:
 625              		.size	LTC2944_GetTemperature_C, .-LTC2944_GetTemperature_C
 626              		.section	.text.LTC2944_GetAccumulatedCharge_mAh,"ax",%progbits
 627              		.align	2
 628              		.global	LTC2944_GetAccumulatedCharge_mAh
 629              		.code	16
 630              		.thumb_func
 631              		.type	LTC2944_GetAccumulatedCharge_mAh, %function
 632              	LTC2944_GetAccumulatedCharge_mAh:
 633              	.LFB43:
 188:LTC2944.c     **** 
 189:LTC2944.c     **** float LTC2944_GetAccumulatedCharge_mAh(void) {
 634              		.loc 1 189 0
 635              		.cfi_startproc
 636              		@ args = 0, pretend = 0, frame = 0
 637              		@ frame_needed = 0, uses_anonymous_args = 0
 638 0000 10B5     		push	{r4, lr}
 639              		.cfi_def_cfa_offset 8
 640              		.cfi_offset 4, -8
 641              		.cfi_offset 14, -4
 190:LTC2944.c     ****     uint16_t raw = LTC2944_Read16(LTC2944_REG_ACC_CHARGE_MSB);
 642              		.loc 1 190 0
 643 0002 0220     		movs	r0, #2
 644 0004 FFF7FEFF 		bl	LTC2944_Read16
 645              	.LVL83:
 191:LTC2944.c     ****     return (float)raw * LTC2944_CHARGE_LSB;
 646              		.loc 1 191 0
 647 0008 FFF7FEFF 		bl	__aeabi_ui2f
 648              	.LVL84:
 649 000c FFF7FEFF 		bl	__aeabi_f2d
 650              	.LVL85:
 651 0010 034A     		ldr	r2, .L32
 652 0012 044B     		ldr	r3, .L32+4
 653 0014 FFF7FEFF 		bl	__aeabi_dmul
 654              	.LVL86:
 655 0018 FFF7FEFF 		bl	__aeabi_d2f
 656              	.LVL87:
 192:LTC2944.c     **** }
 657              		.loc 1 192 0
 658              		@ sp needed
 659 001c 10BD     		pop	{r4, pc}
 660              	.L33:
 661 001e C046     		.align	2
 662              	.L32:
ARM GAS  C:\Users\jimvr\AppData\Local\Temp\ccd10iUv.s 			page 16


 663 0020 C3F5285C 		.word	1546188227
 664 0024 8FC2D53F 		.word	1070973583
 665              		.cfi_endproc
 666              	.LFE43:
 667              		.size	LTC2944_GetAccumulatedCharge_mAh, .-LTC2944_GetAccumulatedCharge_mAh
 668              		.section	.text.LTC2944_GetStateOfCharge,"ax",%progbits
 669              		.align	2
 670              		.global	LTC2944_GetStateOfCharge
 671              		.code	16
 672              		.thumb_func
 673              		.type	LTC2944_GetStateOfCharge, %function
 674              	LTC2944_GetStateOfCharge:
 675              	.LFB44:
 193:LTC2944.c     **** 
 194:LTC2944.c     **** float LTC2944_GetStateOfCharge(void) {
 676              		.loc 1 194 0
 677              		.cfi_startproc
 678              		@ args = 0, pretend = 0, frame = 0
 679              		@ frame_needed = 0, uses_anonymous_args = 0
 680 0000 10B5     		push	{r4, lr}
 681              		.cfi_def_cfa_offset 8
 682              		.cfi_offset 4, -8
 683              		.cfi_offset 14, -4
 195:LTC2944.c     ****     float acc_mAh = LTC2944_GetAccumulatedCharge_mAh();
 684              		.loc 1 195 0
 685 0002 FFF7FEFF 		bl	LTC2944_GetAccumulatedCharge_mAh
 686              	.LVL88:
 196:LTC2944.c     ****     float capacity_mAh = (float)BATTERY_CAPACITY_MAH;
 197:LTC2944.c     ****     float soc = (acc_mAh / capacity_mAh) * 100.0f;
 687              		.loc 1 197 0
 688 0006 0B49     		ldr	r1, .L39
 689 0008 FFF7FEFF 		bl	__aeabi_fdiv
 690              	.LVL89:
 691 000c 0A49     		ldr	r1, .L39+4
 692 000e FFF7FEFF 		bl	__aeabi_fmul
 693              	.LVL90:
 694 0012 041C     		adds	r4, r0, #0
 695              	.LVL91:
 198:LTC2944.c     ****     if (soc < 0.0f) soc = 0.0f;
 696              		.loc 1 198 0
 697 0014 0021     		movs	r1, #0
 698 0016 FFF7FEFF 		bl	__aeabi_fcmplt
 699              	.LVL92:
 700 001a 0028     		cmp	r0, #0
 701 001c 00D0     		beq	.L35
 702 001e 0024     		movs	r4, #0
 703              	.LVL93:
 704              	.L35:
 199:LTC2944.c     ****     if (soc > 100.0f) soc = 100.0f;
 705              		.loc 1 199 0
 706 0020 0549     		ldr	r1, .L39+4
 707 0022 201C     		adds	r0, r4, #0
 708 0024 FFF7FEFF 		bl	__aeabi_fcmpgt
 709              	.LVL94:
 710 0028 0028     		cmp	r0, #0
 711 002a 00D0     		beq	.L36
 712 002c 024C     		ldr	r4, .L39+4
ARM GAS  C:\Users\jimvr\AppData\Local\Temp\ccd10iUv.s 			page 17


 713              	.LVL95:
 714              	.L36:
 200:LTC2944.c     ****     return soc;
 201:LTC2944.c     **** }
 715              		.loc 1 201 0
 716 002e 201C     		adds	r0, r4, #0
 717              		@ sp needed
 718              	.LVL96:
 719 0030 10BD     		pop	{r4, pc}
 720              	.L40:
 721 0032 C046     		.align	2
 722              	.L39:
 723 0034 00C05A45 		.word	1163575296
 724 0038 0000C842 		.word	1120403456
 725              		.cfi_endproc
 726              	.LFE44:
 727              		.size	LTC2944_GetStateOfCharge, .-LTC2944_GetStateOfCharge
 728              		.section	.text.LTC2944_GetAlerts,"ax",%progbits
 729              		.align	2
 730              		.global	LTC2944_GetAlerts
 731              		.code	16
 732              		.thumb_func
 733              		.type	LTC2944_GetAlerts, %function
 734              	LTC2944_GetAlerts:
 735              	.LFB45:
 202:LTC2944.c     **** 
 203:LTC2944.c     **** uint8_t LTC2944_GetAlerts(void) {
 736              		.loc 1 203 0
 737              		.cfi_startproc
 738              		@ args = 0, pretend = 0, frame = 0
 739              		@ frame_needed = 0, uses_anonymous_args = 0
 740 0000 10B5     		push	{r4, lr}
 741              		.cfi_def_cfa_offset 8
 742              		.cfi_offset 4, -8
 743              		.cfi_offset 14, -4
 204:LTC2944.c     ****     return LTC2944_Read(LTC2944_REG_STATUS);
 744              		.loc 1 204 0
 745 0002 0020     		movs	r0, #0
 746 0004 FFF7FEFF 		bl	LTC2944_Read
 747              	.LVL97:
 205:LTC2944.c     **** }
 748              		.loc 1 205 0
 749              		@ sp needed
 750 0008 10BD     		pop	{r4, pc}
 751              		.cfi_endproc
 752              	.LFE45:
 753              		.size	LTC2944_GetAlerts, .-LTC2944_GetAlerts
 754 000a C046     		.section	.text.LTC2944_ClearAlerts,"ax",%progbits
 755              		.align	2
 756              		.global	LTC2944_ClearAlerts
 757              		.code	16
 758              		.thumb_func
 759              		.type	LTC2944_ClearAlerts, %function
 760              	LTC2944_ClearAlerts:
 761              	.LFB46:
 206:LTC2944.c     **** 
 207:LTC2944.c     **** void LTC2944_ClearAlerts(void) {
ARM GAS  C:\Users\jimvr\AppData\Local\Temp\ccd10iUv.s 			page 18


 762              		.loc 1 207 0
 763              		.cfi_startproc
 764              		@ args = 0, pretend = 0, frame = 0
 765              		@ frame_needed = 0, uses_anonymous_args = 0
 766 0000 10B5     		push	{r4, lr}
 767              		.cfi_def_cfa_offset 8
 768              		.cfi_offset 4, -8
 769              		.cfi_offset 14, -4
 208:LTC2944.c     ****     // Reading the status register clears the alert bits
 209:LTC2944.c     ****     (void)LTC2944_Read(LTC2944_REG_STATUS);
 770              		.loc 1 209 0
 771 0002 0020     		movs	r0, #0
 772 0004 FFF7FEFF 		bl	LTC2944_Read
 773              	.LVL98:
 210:LTC2944.c     **** }
 774              		.loc 1 210 0
 775              		@ sp needed
 776 0008 10BD     		pop	{r4, pc}
 777              		.cfi_endproc
 778              	.LFE46:
 779              		.size	LTC2944_ClearAlerts, .-LTC2944_ClearAlerts
 780 000a C046     		.section	.text.LTC2944_Init,"ax",%progbits
 781              		.align	2
 782              		.global	LTC2944_Init
 783              		.code	16
 784              		.thumb_func
 785              		.type	LTC2944_Init, %function
 786              	LTC2944_Init:
 787              	.LFB36:
  82:LTC2944.c     ****     // Configure control register: prescaler, ALCC mode, ADC mode automatic
 788              		.loc 1 82 0
 789              		.cfi_startproc
 790              		@ args = 0, pretend = 0, frame = 0
 791              		@ frame_needed = 0, uses_anonymous_args = 0
 792              	.LVL99:
 793 0000 10B5     		push	{r4, lr}
 794              		.cfi_def_cfa_offset 8
 795              		.cfi_offset 4, -8
 796              		.cfi_offset 14, -4
 797 0002 0400     		movs	r4, r0
 798              	.LVL100:
  93:LTC2944.c     **** 
 799              		.loc 1 93 0
 800 0004 3C23     		movs	r3, #60
 801 0006 5B42     		rsbs	r3, r3, #0
 802 0008 1943     		orrs	r1, r3
 803              	.LVL101:
 804 000a C9B2     		uxtb	r1, r1
 805              	.LVL102:
  96:LTC2944.c     **** 
 806              		.loc 1 96 0
 807 000c 0120     		movs	r0, #1
 808              	.LVL103:
 809 000e FFF7FEFF 		bl	LTC2944_Write
 810              	.LVL104:
  99:LTC2944.c     **** 
 811              		.loc 1 99 0
ARM GAS  C:\Users\jimvr\AppData\Local\Temp\ccd10iUv.s 			page 19


 812 0012 FFF7FEFF 		bl	LTC2944_ClearAlerts
 813              	.LVL105:
 104:LTC2944.c     **** 
 814              		.loc 1 104 0
 815 0016 6008     		lsrs	r0, r4, #1
 816 0018 FFF7FEFF 		bl	LTC2944_SetAccumulatedCharge
 817              	.LVL106:
 107:LTC2944.c     **** 
 818              		.loc 1 107 0
 819 001c 0120     		movs	r0, #1
 820              		@ sp needed
 821 001e 10BD     		pop	{r4, pc}
 822              		.cfi_endproc
 823              	.LFE36:
 824              		.size	LTC2944_Init, .-LTC2944_Init
 825              		.section	.text.LTC2944_Shutdown,"ax",%progbits
 826              		.align	2
 827              		.global	LTC2944_Shutdown
 828              		.code	16
 829              		.thumb_func
 830              		.type	LTC2944_Shutdown, %function
 831              	LTC2944_Shutdown:
 832              	.LFB47:
 211:LTC2944.c     **** 
 212:LTC2944.c     **** void LTC2944_Shutdown(bool shutdown) {
 833              		.loc 1 212 0
 834              		.cfi_startproc
 835              		@ args = 0, pretend = 0, frame = 0
 836              		@ frame_needed = 0, uses_anonymous_args = 0
 837              	.LVL107:
 838 0000 10B5     		push	{r4, lr}
 839              		.cfi_def_cfa_offset 8
 840              		.cfi_offset 4, -8
 841              		.cfi_offset 14, -4
 842 0002 0400     		movs	r4, r0
 213:LTC2944.c     ****     uint8_t control = LTC2944_Read(LTC2944_REG_CONTROL);
 843              		.loc 1 213 0
 844 0004 0120     		movs	r0, #1
 845              	.LVL108:
 846 0006 FFF7FEFF 		bl	LTC2944_Read
 847              	.LVL109:
 214:LTC2944.c     ****     if (shutdown) {
 848              		.loc 1 214 0
 849 000a 002C     		cmp	r4, #0
 850 000c 03D0     		beq	.L45
 215:LTC2944.c     ****         control |= LTC2944_SHUTDOWN_BIT;
 851              		.loc 1 215 0
 852 000e 0121     		movs	r1, #1
 853 0010 0843     		orrs	r0, r1
 854              	.LVL110:
 855 0012 C1B2     		uxtb	r1, r0
 856              	.LVL111:
 857 0014 02E0     		b	.L46
 858              	.LVL112:
 859              	.L45:
 216:LTC2944.c     ****     } else {
 217:LTC2944.c     ****         control &= ~LTC2944_SHUTDOWN_BIT;
ARM GAS  C:\Users\jimvr\AppData\Local\Temp\ccd10iUv.s 			page 20


 860              		.loc 1 217 0
 861 0016 0123     		movs	r3, #1
 862 0018 9843     		bics	r0, r3
 863              	.LVL113:
 864 001a C1B2     		uxtb	r1, r0
 865              	.LVL114:
 866              	.L46:
 218:LTC2944.c     ****     }
 219:LTC2944.c     ****     LTC2944_Write(LTC2944_REG_CONTROL, control);
 867              		.loc 1 219 0
 868 001c 0120     		movs	r0, #1
 869 001e FFF7FEFF 		bl	LTC2944_Write
 870              	.LVL115:
 220:LTC2944.c     **** }
 871              		.loc 1 220 0
 872              		@ sp needed
 873 0022 10BD     		pop	{r4, pc}
 874              		.cfi_endproc
 875              	.LFE47:
 876              		.size	LTC2944_Shutdown, .-LTC2944_Shutdown
 877              		.text
 878              	.Letext0:
 879              		.file 2 "c:\\program files (x86)\\cypress\\psoc creator\\4.4\\psoc creator\\import\\gnu\\arm\\5.4.
 880              		.file 3 "c:\\program files (x86)\\cypress\\psoc creator\\4.4\\psoc creator\\import\\gnu\\arm\\5.4.
 881              		.file 4 "Generated_Source\\PSoC4/cytypes.h"
 882              		.file 5 "LTC2944.h"
 883              		.file 6 "Generated_Source\\PSoC4/I2CM_I2C.h"