ARM GAS  C:\Users\jimvr\AppData\Local\Temp\ccAmGD3f.s 			page 1


   1              		.syntax unified
   2              		.cpu cortex-m0
   3              		.fpu softvfp
   4              		.eabi_attribute 20, 1
   5              		.eabi_attribute 21, 1
   6              		.eabi_attribute 23, 3
   7              		.eabi_attribute 24, 1
   8              		.eabi_attribute 25, 1
   9              		.eabi_attribute 26, 1
  10              		.eabi_attribute 30, 1
  11              		.eabi_attribute 34, 0
  12              		.eabi_attribute 18, 4
  13              		.thumb
  14              		.syntax unified
  15              		.file	"subs.c"
  16              		.text
  17              	.Ltext0:
  18              		.cfi_sections	.debug_frame
  19              		.global	__aeabi_i2f
  20              		.global	__aeabi_fcmpgt
  21              		.section	.text.GetAverageTEMP,"ax",%progbits
  22              		.align	2
  23              		.global	GetAverageTEMP
  24              		.code	16
  25              		.thumb_func
  26              		.type	GetAverageTEMP, %function
  27              	GetAverageTEMP:
  28              	.LFB33:
  29              		.file 1 "subs.c"
   1:subs.c        **** // File: subs.c
   2:subs.c        **** // Project: Revelite
   3:subs.c        **** //
   4:subs.c        **** //
   5:subs.c        **** 
   6:subs.c        **** #include "project.h"
   7:subs.c        **** #include "main.h"
   8:subs.c        **** #include <math.h>
   9:subs.c        **** #include <stdio.h>
  10:subs.c        **** 
  11:subs.c        **** extern structInfo Info;
  12:subs.c        **** extern bool blSaveToInfo;
  13:subs.c        **** 
  14:subs.c        **** //
  15:subs.c        **** // ADC stuff
  16:subs.c        **** extern volatile uint32 dataReady;
  17:subs.c        **** extern volatile int16 result[ADC_TOTAL_CHANNELS_NUM];
  18:subs.c        **** uint16 GetAverageTemp(void);
  19:subs.c        **** uint16 GetAverageVsense(void);
  20:subs.c        **** //
  21:subs.c        **** //
  22:subs.c        **** //
  23:subs.c        **** #define SAMPLES 64 // temps and ZTEN
  24:subs.c        **** bool bWeHaveSampledTEMP = false;
  25:subs.c        **** uint16 GetAverageTEMP(void) {
  30              		.loc 1 25 0
  31              		.cfi_startproc
  32              		@ args = 0, pretend = 0, frame = 0
ARM GAS  C:\Users\jimvr\AppData\Local\Temp\ccAmGD3f.s 			page 2


  33              		@ frame_needed = 0, uses_anonymous_args = 0
  34 0000 10B5     		push	{r4, lr}
  35              		.cfi_def_cfa_offset 8
  36              		.cfi_offset 4, -8
  37              		.cfi_offset 14, -4
  38              	.LVL0:
  26:subs.c        ****     static uint16 uiBuffer[SAMPLES] = {0};
  27:subs.c        ****     static uint16 byPointer = 0;
  28:subs.c        ****     uint32 uiAverage = 0;
  29:subs.c        ****     
  30:subs.c        ****     // get the next sample into buffer, make 10-bit value for stability
  31:subs.c        ****     uiBuffer[byPointer] = result[e_TEMP];
  39              		.loc 1 31 0
  40 0002 174A     		ldr	r2, .L9
  41 0004 1488     		ldrh	r4, [r2]
  42 0006 174B     		ldr	r3, .L9+4
  43 0008 9888     		ldrh	r0, [r3, #4]
  44 000a 6300     		lsls	r3, r4, #1
  45 000c D318     		adds	r3, r2, r3
  46 000e 9880     		strh	r0, [r3, #4]
  32:subs.c        ****     if(uiBuffer[byPointer] > MAXADC)
  47              		.loc 1 32 0
  48 0010 FFF7FEFF 		bl	__aeabi_i2f
  49              	.LVL1:
  50 0014 1449     		ldr	r1, .L9+8
  51 0016 FFF7FEFF 		bl	__aeabi_fcmpgt
  52              	.LVL2:
  53 001a 0028     		cmp	r0, #0
  54 001c 05D0     		beq	.L8
  33:subs.c        ****         uiBuffer[byPointer] = 0;
  55              		.loc 1 33 0
  56 001e 6400     		lsls	r4, r4, #1
  57 0020 0F4B     		ldr	r3, .L9
  58 0022 1C19     		adds	r4, r3, r4
  59 0024 0023     		movs	r3, #0
  60 0026 A380     		strh	r3, [r4, #4]
  61 0028 0AE0     		b	.L4
  62              	.L8:
  34:subs.c        ****     else if(++byPointer > SAMPLES) {
  63              		.loc 1 34 0
  64 002a 0134     		adds	r4, r4, #1
  65 002c A4B2     		uxth	r4, r4
  66 002e 0C4B     		ldr	r3, .L9
  67 0030 1C80     		strh	r4, [r3]
  68 0032 402C     		cmp	r4, #64
  69 0034 04D9     		bls	.L4
  35:subs.c        ****         byPointer = 0;
  70              		.loc 1 35 0
  71 0036 0022     		movs	r2, #0
  72 0038 1A80     		strh	r2, [r3]
  36:subs.c        ****         bWeHaveSampledTEMP = true;
  73              		.loc 1 36 0
  74 003a 0132     		adds	r2, r2, #1
  75 003c 0B4B     		ldr	r3, .L9+12
  76 003e 1A71     		strb	r2, [r3, #4]
  77              	.L4:
  78              	.LVL3:
ARM GAS  C:\Users\jimvr\AppData\Local\Temp\ccAmGD3f.s 			page 3


  79              	.LBB2:
  37:subs.c        ****     }
  38:subs.c        ****     // average by adding them all together, then dividing
  39:subs.c        ****     for(uint8 n = 0;n<SAMPLES;n++)
  80              		.loc 1 39 0
  81 0040 0023     		movs	r3, #0
  82              	.LBE2:
  28:subs.c        ****     
  83              		.loc 1 28 0
  84 0042 0020     		movs	r0, #0
  85              	.LBB3:
  86              		.loc 1 39 0
  87 0044 06E0     		b	.L5
  88              	.LVL4:
  89              	.L6:
  40:subs.c        ****         uiAverage += uiBuffer[n];
  90              		.loc 1 40 0 discriminator 3
  91 0046 5A00     		lsls	r2, r3, #1
  92 0048 0549     		ldr	r1, .L9
  93 004a 8A18     		adds	r2, r1, r2
  94 004c 9288     		ldrh	r2, [r2, #4]
  95 004e 8018     		adds	r0, r0, r2
  96              	.LVL5:
  39:subs.c        ****         uiAverage += uiBuffer[n];
  97              		.loc 1 39 0 discriminator 3
  98 0050 0133     		adds	r3, r3, #1
  99              	.LVL6:
 100 0052 DBB2     		uxtb	r3, r3
 101              	.LVL7:
 102              	.L5:
  39:subs.c        ****         uiAverage += uiBuffer[n];
 103              		.loc 1 39 0 is_stmt 0 discriminator 1
 104 0054 3F2B     		cmp	r3, #63
 105 0056 F6D9     		bls	.L6
 106              	.LBE3:
  41:subs.c        ****     // return the average    
  42:subs.c        ****     return((uint16)(uiAverage/SAMPLES));
 107              		.loc 1 42 0 is_stmt 1
 108 0058 8009     		lsrs	r0, r0, #6
 109              	.LVL8:
 110 005a 80B2     		uxth	r0, r0
  43:subs.c        **** }
 111              		.loc 1 43 0
 112              		@ sp needed
 113 005c 10BD     		pop	{r4, pc}
 114              	.L10:
 115 005e C046     		.align	2
 116              	.L9:
 117 0060 00000000 		.word	.LANCHOR0
 118 0064 00000000 		.word	result
 119 0068 00E0FF44 		.word	1157619712
 120 006c 80000000 		.word	.LANCHOR1
 121              		.cfi_endproc
 122              	.LFE33:
 123              		.size	GetAverageTEMP, .-GetAverageTEMP
 124              		.section	.text.I2CM_SyncWrite,"ax",%progbits
 125              		.align	2
ARM GAS  C:\Users\jimvr\AppData\Local\Temp\ccAmGD3f.s 			page 4


 126              		.global	I2CM_SyncWrite
 127              		.code	16
 128              		.thumb_func
 129              		.type	I2CM_SyncWrite, %function
 130              	I2CM_SyncWrite:
 131              	.LFB35:
  44:subs.c        **** //
  45:subs.c        **** 
  46:subs.c        **** // this is the write to the connector board PCLA9538 latch
  47:subs.c        **** void LatchWrite(uint8 byAddress, uint8 byReg, uint8 byData) {
  48:subs.c        ****     
  49:subs.c        ****     uint8 buffer[2];
  50:subs.c        ****     buffer[0] = byReg;
  51:subs.c        ****     buffer[1] = byData;
  52:subs.c        ****         
  53:subs.c        ****     uint8 error = I2CM_SyncWrite(byAddress, (uint8*)buffer, 2);
  54:subs.c        **** }
  55:subs.c        **** 
  56:subs.c        **** //
  57:subs.c        **** bool I2CM_SyncWrite(uint8 bySlaveAddr, uint8 *buffer, uint8 length) {
 132              		.loc 1 57 0
 133              		.cfi_startproc
 134              		@ args = 0, pretend = 0, frame = 0
 135              		@ frame_needed = 0, uses_anonymous_args = 0
 136              	.LVL9:
 137 0000 70B5     		push	{r4, r5, r6, lr}
 138              		.cfi_def_cfa_offset 16
 139              		.cfi_offset 4, -16
 140              		.cfi_offset 5, -12
 141              		.cfi_offset 6, -8
 142              		.cfi_offset 14, -4
 143 0002 0400     		movs	r4, r0
 144 0004 0E00     		movs	r6, r1
 145 0006 1500     		movs	r5, r2
 146              	.LVL10:
  58:subs.c        ****     
  59:subs.c        ****     bool error = false;
  60:subs.c        ****     
  61:subs.c        ****     I2CM_I2CMasterClearStatus();
 147              		.loc 1 61 0
 148 0008 FFF7FEFF 		bl	I2CM_I2CMasterClearStatus
 149              	.LVL11:
  62:subs.c        ****     uint32 status = I2CM_I2CMasterSendStart(bySlaveAddr, I2CM_I2C_WRITE_XFER_MODE, 100);
 150              		.loc 1 62 0
 151 000c 6422     		movs	r2, #100
 152 000e 0021     		movs	r1, #0
 153 0010 2000     		movs	r0, r4
 154 0012 FFF7FEFF 		bl	I2CM_I2CMasterSendStart
 155              	.LVL12:
  63:subs.c        ****     if(status == I2CM_I2C_MSTR_NO_ERROR)	{	
 156              		.loc 1 63 0
 157 0016 0028     		cmp	r0, #0
 158 0018 09D0     		beq	.L15
 159              	.LBB4:
 160 001a 0BE0     		b	.L13
 161              	.LVL13:
 162              	.L14:
ARM GAS  C:\Users\jimvr\AppData\Local\Temp\ccAmGD3f.s 			page 5


  64:subs.c        **** 		for(uint8 i = 0; i<length; i++) {
  65:subs.c        **** 			status = I2CM_I2CMasterWriteByte(buffer[i], 25);
 163              		.loc 1 65 0
 164 001c 305D     		ldrb	r0, [r6, r4]
 165              	.LVL14:
 166 001e 1921     		movs	r1, #25
 167 0020 FFF7FEFF 		bl	I2CM_I2CMasterWriteByte
 168              	.LVL15:
  66:subs.c        **** 			if(status != I2CM_I2C_MSTR_NO_ERROR)
 169              		.loc 1 66 0
 170 0024 0028     		cmp	r0, #0
 171 0026 05D1     		bne	.L13
  64:subs.c        **** 		for(uint8 i = 0; i<length; i++) {
 172              		.loc 1 64 0 discriminator 2
 173 0028 0134     		adds	r4, r4, #1
 174              	.LVL16:
 175 002a E4B2     		uxtb	r4, r4
 176              	.LVL17:
 177 002c 00E0     		b	.L12
 178              	.LVL18:
 179              	.L15:
 180              	.LBE4:
 181 002e 0024     		movs	r4, #0
 182              	.L12:
 183              	.LVL19:
 184              	.LBB5:
  64:subs.c        **** 		for(uint8 i = 0; i<length; i++) {
 185              		.loc 1 64 0 is_stmt 0 discriminator 1
 186 0030 AC42     		cmp	r4, r5
 187 0032 F3D3     		bcc	.L14
 188              	.LVL20:
 189              	.L13:
 190              	.LBE5:
  67:subs.c        **** 				break;
  68:subs.c        **** 		}
  69:subs.c        ****     }
  70:subs.c        ****     
  71:subs.c        **** 	I2CM_I2CMasterSendStop(25);    
 191              		.loc 1 71 0 is_stmt 1
 192 0034 1920     		movs	r0, #25
 193              	.LVL21:
 194 0036 FFF7FEFF 		bl	I2CM_I2CMasterSendStop
 195              	.LVL22:
  72:subs.c        ****     return error;
  73:subs.c        **** }
 196              		.loc 1 73 0
 197 003a 0020     		movs	r0, #0
 198              		@ sp needed
 199              	.LVL23:
 200 003c 70BD     		pop	{r4, r5, r6, pc}
 201              		.cfi_endproc
 202              	.LFE35:
 203              		.size	I2CM_SyncWrite, .-I2CM_SyncWrite
 204 003e C046     		.section	.text.LatchWrite,"ax",%progbits
 205              		.align	2
 206              		.global	LatchWrite
 207              		.code	16
ARM GAS  C:\Users\jimvr\AppData\Local\Temp\ccAmGD3f.s 			page 6


 208              		.thumb_func
 209              		.type	LatchWrite, %function
 210              	LatchWrite:
 211              	.LFB34:
  47:subs.c        ****     
 212              		.loc 1 47 0
 213              		.cfi_startproc
 214              		@ args = 0, pretend = 0, frame = 8
 215              		@ frame_needed = 0, uses_anonymous_args = 0
 216              	.LVL24:
 217 0000 00B5     		push	{lr}
 218              		.cfi_def_cfa_offset 4
 219              		.cfi_offset 14, -4
 220 0002 83B0     		sub	sp, sp, #12
 221              		.cfi_def_cfa_offset 16
  50:subs.c        ****     buffer[1] = byData;
 222              		.loc 1 50 0
 223 0004 01AB     		add	r3, sp, #4
 224 0006 1970     		strb	r1, [r3]
  51:subs.c        ****         
 225              		.loc 1 51 0
 226 0008 5A70     		strb	r2, [r3, #1]
  53:subs.c        **** }
 227              		.loc 1 53 0
 228 000a 0222     		movs	r2, #2
 229              	.LVL25:
 230 000c 1900     		movs	r1, r3
 231              	.LVL26:
 232 000e FFF7FEFF 		bl	I2CM_SyncWrite
 233              	.LVL27:
  54:subs.c        **** 
 234              		.loc 1 54 0
 235 0012 03B0     		add	sp, sp, #12
 236              		@ sp needed
 237 0014 00BD     		pop	{pc}
 238              		.cfi_endproc
 239              	.LFE34:
 240              		.size	LatchWrite, .-LatchWrite
 241 0016 C046     		.section	.text.I2CM_SyncRead,"ax",%progbits
 242              		.align	2
 243              		.global	I2CM_SyncRead
 244              		.code	16
 245              		.thumb_func
 246              		.type	I2CM_SyncRead, %function
 247              	I2CM_SyncRead:
 248              	.LFB37:
  74:subs.c        **** 
  75:subs.c        **** // this is the write to the connector board PCLA9538 latch
  76:subs.c        **** void LatchRead(uint8 byAddress, uint8 byReg, uint8 byData) {
  77:subs.c        ****     
  78:subs.c        ****     uint8 buffer[2];
  79:subs.c        ****     buffer[0] = byReg;
  80:subs.c        ****     I2CM_SyncWrite(byAddress, buffer, 2);    
  81:subs.c        ****     
  82:subs.c        ****     uint8 error = I2CM_SyncRead(byAddress, (uint8*)buffer, 1);
  83:subs.c        ****     
  84:subs.c        ****     byData = buffer[0];  // return value
ARM GAS  C:\Users\jimvr\AppData\Local\Temp\ccAmGD3f.s 			page 7


  85:subs.c        **** }
  86:subs.c        **** 
  87:subs.c        **** //
  88:subs.c        **** // I2C using Start, Data, Stop methods, these are called by the next set of routines
  89:subs.c        **** //
  90:subs.c        **** bool I2CM_SyncRead(uint8 bySlaveAddr, uint8 *buffer, uint8 length) {
 249              		.loc 1 90 0
 250              		.cfi_startproc
 251              		@ args = 0, pretend = 0, frame = 0
 252              		@ frame_needed = 0, uses_anonymous_args = 0
 253              	.LVL28:
 254 0000 70B5     		push	{r4, r5, r6, lr}
 255              		.cfi_def_cfa_offset 16
 256              		.cfi_offset 4, -16
 257              		.cfi_offset 5, -12
 258              		.cfi_offset 6, -8
 259              		.cfi_offset 14, -4
 260 0002 0400     		movs	r4, r0
 261 0004 0E00     		movs	r6, r1
 262 0006 1500     		movs	r5, r2
 263              	.LVL29:
  91:subs.c        ****     bool error = false;
  92:subs.c        ****     
  93:subs.c        ****   	I2CM_I2CMasterClearStatus();
 264              		.loc 1 93 0
 265 0008 FFF7FEFF 		bl	I2CM_I2CMasterClearStatus
 266              	.LVL30:
  94:subs.c        ****     uint32 status = I2CM_I2CMasterSendStart(bySlaveAddr, I2CM_I2C_READ_XFER_MODE, 100);
 267              		.loc 1 94 0
 268 000c 6422     		movs	r2, #100
 269 000e 0121     		movs	r1, #1
 270 0010 2000     		movs	r0, r4
 271 0012 FFF7FEFF 		bl	I2CM_I2CMasterSendStart
 272              	.LVL31:
  95:subs.c        **** 	if(status == I2CM_I2C_MSTR_NO_ERROR) {
 273              		.loc 1 95 0
 274 0016 0028     		cmp	r0, #0
 275 0018 11D0     		beq	.L23
 276              	.LBB6:
 277 001a 13E0     		b	.L19
 278              	.LVL32:
 279              	.L22:
  96:subs.c        ****     	for(uint8 i=0; i<length; i++) {
  97:subs.c        ****     		if(i<(length-1))
 280              		.loc 1 97 0
 281 001c 6B1E     		subs	r3, r5, #1
 282 001e 9C42     		cmp	r4, r3
 283 0020 05DA     		bge	.L20
  98:subs.c        ****     			I2CM_I2CMasterReadByte(I2CM_I2C_ACK_DATA, (buffer+i), 10);
 284              		.loc 1 98 0
 285 0022 3119     		adds	r1, r6, r4
 286 0024 0A22     		movs	r2, #10
 287 0026 0020     		movs	r0, #0
 288 0028 FFF7FEFF 		bl	I2CM_I2CMasterReadByte
 289              	.LVL33:
 290 002c 04E0     		b	.L21
 291              	.L20:
ARM GAS  C:\Users\jimvr\AppData\Local\Temp\ccAmGD3f.s 			page 8


  99:subs.c        ****     		else
 100:subs.c        ****     			I2CM_I2CMasterReadByte(I2CM_I2C_NAK_DATA, (buffer+i), 10);
 292              		.loc 1 100 0
 293 002e 3119     		adds	r1, r6, r4
 294 0030 0A22     		movs	r2, #10
 295 0032 0120     		movs	r0, #1
 296 0034 FFF7FEFF 		bl	I2CM_I2CMasterReadByte
 297              	.LVL34:
 298              	.L21:
  96:subs.c        ****     		if(i<(length-1))
 299              		.loc 1 96 0 discriminator 2
 300 0038 0134     		adds	r4, r4, #1
 301              	.LVL35:
 302 003a E4B2     		uxtb	r4, r4
 303              	.LVL36:
 304 003c 00E0     		b	.L18
 305              	.LVL37:
 306              	.L23:
 307              	.LBE6:
 308 003e 0024     		movs	r4, #0
 309              	.LVL38:
 310              	.L18:
 311              	.LBB7:
  96:subs.c        ****     		if(i<(length-1))
 312              		.loc 1 96 0 is_stmt 0 discriminator 1
 313 0040 AC42     		cmp	r4, r5
 314 0042 EBD3     		bcc	.L22
 315              	.LVL39:
 316              	.L19:
 317              	.LBE7:
 101:subs.c        ****         }
 102:subs.c        ****     }
 103:subs.c        ****     
 104:subs.c        **** 	I2CM_I2CMasterSendStop(25);
 318              		.loc 1 104 0 is_stmt 1
 319 0044 1920     		movs	r0, #25
 320 0046 FFF7FEFF 		bl	I2CM_I2CMasterSendStop
 321              	.LVL40:
 105:subs.c        ****     return(error);
 106:subs.c        **** }
 322              		.loc 1 106 0
 323 004a 0020     		movs	r0, #0
 324              		@ sp needed
 325              	.LVL41:
 326 004c 70BD     		pop	{r4, r5, r6, pc}
 327              		.cfi_endproc
 328              	.LFE37:
 329              		.size	I2CM_SyncRead, .-I2CM_SyncRead
 330 004e C046     		.section	.text.LatchRead,"ax",%progbits
 331              		.align	2
 332              		.global	LatchRead
 333              		.code	16
 334              		.thumb_func
 335              		.type	LatchRead, %function
 336              	LatchRead:
 337              	.LFB36:
  76:subs.c        ****     
ARM GAS  C:\Users\jimvr\AppData\Local\Temp\ccAmGD3f.s 			page 9


 338              		.loc 1 76 0
 339              		.cfi_startproc
 340              		@ args = 0, pretend = 0, frame = 8
 341              		@ frame_needed = 0, uses_anonymous_args = 0
 342              	.LVL42:
 343 0000 30B5     		push	{r4, r5, lr}
 344              		.cfi_def_cfa_offset 12
 345              		.cfi_offset 4, -12
 346              		.cfi_offset 5, -8
 347              		.cfi_offset 14, -4
 348 0002 83B0     		sub	sp, sp, #12
 349              		.cfi_def_cfa_offset 24
 350 0004 0500     		movs	r5, r0
  79:subs.c        ****     I2CM_SyncWrite(byAddress, buffer, 2);    
 351              		.loc 1 79 0
 352 0006 01AC     		add	r4, sp, #4
 353 0008 2170     		strb	r1, [r4]
  80:subs.c        ****     
 354              		.loc 1 80 0
 355 000a 0222     		movs	r2, #2
 356              	.LVL43:
 357 000c 2100     		movs	r1, r4
 358              	.LVL44:
 359 000e FFF7FEFF 		bl	I2CM_SyncWrite
 360              	.LVL45:
  82:subs.c        ****     
 361              		.loc 1 82 0
 362 0012 0122     		movs	r2, #1
 363 0014 2100     		movs	r1, r4
 364 0016 2800     		movs	r0, r5
 365 0018 FFF7FEFF 		bl	I2CM_SyncRead
 366              	.LVL46:
  85:subs.c        **** 
 367              		.loc 1 85 0
 368 001c 03B0     		add	sp, sp, #12
 369              		@ sp needed
 370              	.LVL47:
 371 001e 30BD     		pop	{r4, r5, pc}
 372              		.cfi_endproc
 373              	.LFE36:
 374              		.size	LatchRead, .-LatchRead
 375              		.section	.text.RW_EEPROMData,"ax",%progbits
 376              		.align	2
 377              		.global	RW_EEPROMData
 378              		.code	16
 379              		.thumb_func
 380              		.type	RW_EEPROMData, %function
 381              	RW_EEPROMData:
 382              	.LFB38:
 107:subs.c        **** 
 108:subs.c        **** 
 109:subs.c        **** // EEPROM stuff
 110:subs.c        **** const structInfo defaultInfo = {
 111:subs.c        **** 
 112:subs.c        ****     .bWeHaveLearned = false,
 113:subs.c        ****     .uiCalCh1 = 0,
 114:subs.c        ****     .uiCalCh2 = 0,
ARM GAS  C:\Users\jimvr\AppData\Local\Temp\ccAmGD3f.s 			page 10


 115:subs.c        **** 	
 116:subs.c        **** 	.byEEPROMSave1 = 0x55,
 117:subs.c        **** 	.byEEPROMSave2 = 0xAA,
 118:subs.c        **** };
 119:subs.c        **** 
 120:subs.c        **** #define INFO_ROW       	(CY_FLASH_NUMBER_ROWS - 2u)
 121:subs.c        **** #define INFO_ADDR      	(INFO_ROW * CY_FLASH_SIZEOF_ROW)
 122:subs.c        **** uint8 Info_Mem[CY_FLASH_SIZEOF_ROW];
 123:subs.c        **** void RW_EEPROMData(uint8 RW) {
 383              		.loc 1 123 0
 384              		.cfi_startproc
 385              		@ args = 0, pretend = 0, frame = 0
 386              		@ frame_needed = 0, uses_anonymous_args = 0
 387              	.LVL48:
 388 0000 70B5     		push	{r4, r5, r6, lr}
 389              		.cfi_def_cfa_offset 16
 390              		.cfi_offset 4, -16
 391              		.cfi_offset 5, -12
 392              		.cfi_offset 6, -8
 393              		.cfi_offset 14, -4
 394 0002 051E     		subs	r5, r0, #0
 124:subs.c        ****     
 125:subs.c        **** 	if (RW == e_EEPROMWRITE) {
 395              		.loc 1 125 0
 396 0004 0ED1     		bne	.L26
 126:subs.c        **** 		Info.byEEPROMSave1 = 0x55;
 397              		.loc 1 126 0
 398 0006 1849     		ldr	r1, .L29
 399 0008 5523     		movs	r3, #85
 400 000a 4B71     		strb	r3, [r1, #5]
 127:subs.c        **** 		Info.byEEPROMSave2 = 0xAA;
 401              		.loc 1 127 0
 402 000c 5533     		adds	r3, r3, #85
 403 000e 8B71     		strb	r3, [r1, #6]
 128:subs.c        **** 		memcpy(Info_Mem,(uint8*)&Info, sizeof(structInfo));
 404              		.loc 1 128 0
 405 0010 164C     		ldr	r4, .L29+4
 406 0012 0722     		movs	r2, #7
 407 0014 2000     		movs	r0, r4
 408              	.LVL49:
 409 0016 FFF7FEFF 		bl	memcpy
 410              	.LVL50:
 129:subs.c        **** 	    CySysFlashWriteRow(INFO_ROW, Info_Mem);
 411              		.loc 1 129 0
 412 001a 2100     		movs	r1, r4
 413 001c FE20     		movs	r0, #254
 414 001e FFF7FEFF 		bl	CySysFlashWriteRow
 415              	.LVL51:
 416 0022 1FE0     		b	.L25
 417              	.LVL52:
 418              	.L26:
 130:subs.c        **** 	} else {
 131:subs.c        **** 		memcpy((uint8*)&Info, (uint8*)INFO_ADDR, sizeof(structInfo));
 419              		.loc 1 131 0
 420 0024 104C     		ldr	r4, .L29
 421 0026 0722     		movs	r2, #7
 422 0028 FE21     		movs	r1, #254
ARM GAS  C:\Users\jimvr\AppData\Local\Temp\ccAmGD3f.s 			page 11


 423 002a C901     		lsls	r1, r1, #7
 424 002c 2000     		movs	r0, r4
 425              	.LVL53:
 426 002e FFF7FEFF 		bl	memcpy
 427              	.LVL54:
 132:subs.c        **** 		if (Info.byEEPROMSave1 != 0x55 || Info.byEEPROMSave2 != 0xAA || RW == e_EEPROMFLUSHRESTORE){
 428              		.loc 1 132 0
 429 0032 6379     		ldrb	r3, [r4, #5]
 430 0034 552B     		cmp	r3, #85
 431 0036 05D1     		bne	.L28
 432              		.loc 1 132 0 is_stmt 0 discriminator 1
 433 0038 0B4B     		ldr	r3, .L29
 434 003a 9B79     		ldrb	r3, [r3, #6]
 435 003c AA2B     		cmp	r3, #170
 436 003e 01D1     		bne	.L28
 437              		.loc 1 132 0 discriminator 2
 438 0040 022D     		cmp	r5, #2
 439 0042 0FD1     		bne	.L25
 440              	.L28:
 133:subs.c        ****             Info = defaultInfo; // we are brand new or are told to be brand new, make it happen
 441              		.loc 1 133 0 is_stmt 1
 442 0044 084D     		ldr	r5, .L29
 443 0046 0722     		movs	r2, #7
 444 0048 0949     		ldr	r1, .L29+8
 445 004a 2800     		movs	r0, r5
 446 004c FFF7FEFF 		bl	memcpy
 447              	.LVL55:
 134:subs.c        ****             memcpy(Info_Mem,(uint8*)&Info, sizeof(structInfo));
 448              		.loc 1 134 0
 449 0050 064C     		ldr	r4, .L29+4
 450 0052 0722     		movs	r2, #7
 451 0054 2900     		movs	r1, r5
 452 0056 2000     		movs	r0, r4
 453 0058 FFF7FEFF 		bl	memcpy
 454              	.LVL56:
 135:subs.c        **** 			CySysFlashWriteRow(INFO_ROW, Info_Mem);
 455              		.loc 1 135 0
 456 005c 2100     		movs	r1, r4
 457 005e FE20     		movs	r0, #254
 458 0060 FFF7FEFF 		bl	CySysFlashWriteRow
 459              	.LVL57:
 460              	.L25:
 136:subs.c        **** 		}
 137:subs.c        **** 	}
 138:subs.c        **** }
 461              		.loc 1 138 0
 462              		@ sp needed
 463 0064 70BD     		pop	{r4, r5, r6, pc}
 464              	.L30:
 465 0066 C046     		.align	2
 466              	.L29:
 467 0068 00000000 		.word	Info
 468 006c 00000000 		.word	Info_Mem
 469 0070 00000000 		.word	.LANCHOR2
 470              		.cfi_endproc
 471              	.LFE38:
 472              		.size	RW_EEPROMData, .-RW_EEPROMData
ARM GAS  C:\Users\jimvr\AppData\Local\Temp\ccAmGD3f.s 			page 12


 473              		.comm	Info_Mem,128,4
 474              		.global	defaultInfo
 475              		.global	bWeHaveSampledTEMP
 476              		.section	.rodata
 477              		.align	2
 478              		.set	.LANCHOR2,. + 0
 479              		.type	defaultInfo, %object
 480              		.size	defaultInfo, 7
 481              	defaultInfo:
 482 0000 00       		.byte	0
 483 0001 0000     		.2byte	0
 484 0003 0000     		.2byte	0
 485 0005 55       		.byte	85
 486 0006 AA       		.byte	-86
 487              		.bss
 488              		.align	2
 489              		.set	.LANCHOR0,. + 0
 490              		.set	.LANCHOR1,. + 128
 491              		.type	byPointer.7656, %object
 492              		.size	byPointer.7656, 2
 493              	byPointer.7656:
 494 0000 0000     		.space	2
 495 0002 0000     		.space	2
 496              		.type	uiBuffer.7655, %object
 497              		.size	uiBuffer.7655, 128
 498              	uiBuffer.7655:
 499 0004 00000000 		.space	128
 499      00000000 
 499      00000000 
 499      00000000 
 499      00000000 
 500              		.type	bWeHaveSampledTEMP, %object
 501              		.size	bWeHaveSampledTEMP, 1
 502              	bWeHaveSampledTEMP:
 503 0084 00       		.space	1
 504              		.text
 505              	.Letext0:
 506              		.file 2 "Generated_Source\\PSoC4/cytypes.h"
 507              		.file 3 "main.h"
 508              		.file 4 "Generated_Source\\PSoC4/I2CM_I2C.h"
 509              		.file 5 "Generated_Source\\PSoC4/CyFlash.h"